
;CodeVisionAVR C Compiler V3.12 Advanced
;(C) Copyright 1998-2014 Pavel Haiduc, HP InfoTech s.r.l.
;http://www.hpinfotech.com

;Build configuration    : Debug
;Chip type              : ATmega32A
;Program type           : Application
;Clock frequency        : 8.000000 MHz
;Memory model           : Small
;Optimize for           : Size
;(s)printf features     : int, width
;(s)scanf features      : int, width
;External RAM size      : 0
;Data Stack size        : 512 byte(s)
;Heap size              : 0 byte(s)
;Promote 'char' to 'int': Yes
;'char' is unsigned     : Yes
;8 bit enums            : Yes
;Global 'const' stored in FLASH: No
;Enhanced function parameter passing: Yes
;Enhanced core instructions: On
;Automatic register allocation for global variables: On
;Smart register allocation: On

	#define _MODEL_SMALL_

	#pragma AVRPART ADMIN PART_NAME ATmega32A
	#pragma AVRPART MEMORY PROG_FLASH 32768
	#pragma AVRPART MEMORY EEPROM 1024
	#pragma AVRPART MEMORY INT_SRAM SIZE 2048
	#pragma AVRPART MEMORY INT_SRAM START_ADDR 0x60

	#define CALL_SUPPORTED 1

	.LISTMAC
	.EQU UDRE=0x5
	.EQU RXC=0x7
	.EQU USR=0xB
	.EQU UDR=0xC
	.EQU SPSR=0xE
	.EQU SPDR=0xF
	.EQU EERE=0x0
	.EQU EEWE=0x1
	.EQU EEMWE=0x2
	.EQU EECR=0x1C
	.EQU EEDR=0x1D
	.EQU EEARL=0x1E
	.EQU EEARH=0x1F
	.EQU WDTCR=0x21
	.EQU MCUCR=0x35
	.EQU SPL=0x3D
	.EQU SPH=0x3E
	.EQU SREG=0x3F

	.DEF R0X0=R0
	.DEF R0X1=R1
	.DEF R0X2=R2
	.DEF R0X3=R3
	.DEF R0X4=R4
	.DEF R0X5=R5
	.DEF R0X6=R6
	.DEF R0X7=R7
	.DEF R0X8=R8
	.DEF R0X9=R9
	.DEF R0XA=R10
	.DEF R0XB=R11
	.DEF R0XC=R12
	.DEF R0XD=R13
	.DEF R0XE=R14
	.DEF R0XF=R15
	.DEF R0X10=R16
	.DEF R0X11=R17
	.DEF R0X12=R18
	.DEF R0X13=R19
	.DEF R0X14=R20
	.DEF R0X15=R21
	.DEF R0X16=R22
	.DEF R0X17=R23
	.DEF R0X18=R24
	.DEF R0X19=R25
	.DEF R0X1A=R26
	.DEF R0X1B=R27
	.DEF R0X1C=R28
	.DEF R0X1D=R29
	.DEF R0X1E=R30
	.DEF R0X1F=R31

	.EQU __SRAM_START=0x0060
	.EQU __SRAM_END=0x085F
	.EQU __DSTACK_SIZE=0x0200
	.EQU __HEAP_SIZE=0x0000
	.EQU __CLEAR_SRAM_SIZE=__SRAM_END-__SRAM_START+1

	.MACRO __CPD1N
	CPI  R30,LOW(@0)
	LDI  R26,HIGH(@0)
	CPC  R31,R26
	LDI  R26,BYTE3(@0)
	CPC  R22,R26
	LDI  R26,BYTE4(@0)
	CPC  R23,R26
	.ENDM

	.MACRO __CPD2N
	CPI  R26,LOW(@0)
	LDI  R30,HIGH(@0)
	CPC  R27,R30
	LDI  R30,BYTE3(@0)
	CPC  R24,R30
	LDI  R30,BYTE4(@0)
	CPC  R25,R30
	.ENDM

	.MACRO __CPWRR
	CP   R@0,R@2
	CPC  R@1,R@3
	.ENDM

	.MACRO __CPWRN
	CPI  R@0,LOW(@2)
	LDI  R30,HIGH(@2)
	CPC  R@1,R30
	.ENDM

	.MACRO __ADDB1MN
	SUBI R30,LOW(-@0-(@1))
	.ENDM

	.MACRO __ADDB2MN
	SUBI R26,LOW(-@0-(@1))
	.ENDM

	.MACRO __ADDW1MN
	SUBI R30,LOW(-@0-(@1))
	SBCI R31,HIGH(-@0-(@1))
	.ENDM

	.MACRO __ADDW2MN
	SUBI R26,LOW(-@0-(@1))
	SBCI R27,HIGH(-@0-(@1))
	.ENDM

	.MACRO __ADDW1FN
	SUBI R30,LOW(-2*@0-(@1))
	SBCI R31,HIGH(-2*@0-(@1))
	.ENDM

	.MACRO __ADDD1FN
	SUBI R30,LOW(-2*@0-(@1))
	SBCI R31,HIGH(-2*@0-(@1))
	SBCI R22,BYTE3(-2*@0-(@1))
	.ENDM

	.MACRO __ADDD1N
	SUBI R30,LOW(-@0)
	SBCI R31,HIGH(-@0)
	SBCI R22,BYTE3(-@0)
	SBCI R23,BYTE4(-@0)
	.ENDM

	.MACRO __ADDD2N
	SUBI R26,LOW(-@0)
	SBCI R27,HIGH(-@0)
	SBCI R24,BYTE3(-@0)
	SBCI R25,BYTE4(-@0)
	.ENDM

	.MACRO __SUBD1N
	SUBI R30,LOW(@0)
	SBCI R31,HIGH(@0)
	SBCI R22,BYTE3(@0)
	SBCI R23,BYTE4(@0)
	.ENDM

	.MACRO __SUBD2N
	SUBI R26,LOW(@0)
	SBCI R27,HIGH(@0)
	SBCI R24,BYTE3(@0)
	SBCI R25,BYTE4(@0)
	.ENDM

	.MACRO __ANDBMNN
	LDS  R30,@0+(@1)
	ANDI R30,LOW(@2)
	STS  @0+(@1),R30
	.ENDM

	.MACRO __ANDWMNN
	LDS  R30,@0+(@1)
	ANDI R30,LOW(@2)
	STS  @0+(@1),R30
	LDS  R30,@0+(@1)+1
	ANDI R30,HIGH(@2)
	STS  @0+(@1)+1,R30
	.ENDM

	.MACRO __ANDD1N
	ANDI R30,LOW(@0)
	ANDI R31,HIGH(@0)
	ANDI R22,BYTE3(@0)
	ANDI R23,BYTE4(@0)
	.ENDM

	.MACRO __ANDD2N
	ANDI R26,LOW(@0)
	ANDI R27,HIGH(@0)
	ANDI R24,BYTE3(@0)
	ANDI R25,BYTE4(@0)
	.ENDM

	.MACRO __ORBMNN
	LDS  R30,@0+(@1)
	ORI  R30,LOW(@2)
	STS  @0+(@1),R30
	.ENDM

	.MACRO __ORWMNN
	LDS  R30,@0+(@1)
	ORI  R30,LOW(@2)
	STS  @0+(@1),R30
	LDS  R30,@0+(@1)+1
	ORI  R30,HIGH(@2)
	STS  @0+(@1)+1,R30
	.ENDM

	.MACRO __ORD1N
	ORI  R30,LOW(@0)
	ORI  R31,HIGH(@0)
	ORI  R22,BYTE3(@0)
	ORI  R23,BYTE4(@0)
	.ENDM

	.MACRO __ORD2N
	ORI  R26,LOW(@0)
	ORI  R27,HIGH(@0)
	ORI  R24,BYTE3(@0)
	ORI  R25,BYTE4(@0)
	.ENDM

	.MACRO __DELAY_USB
	LDI  R24,LOW(@0)
__DELAY_USB_LOOP:
	DEC  R24
	BRNE __DELAY_USB_LOOP
	.ENDM

	.MACRO __DELAY_USW
	LDI  R24,LOW(@0)
	LDI  R25,HIGH(@0)
__DELAY_USW_LOOP:
	SBIW R24,1
	BRNE __DELAY_USW_LOOP
	.ENDM

	.MACRO __GETD1S
	LDD  R30,Y+@0
	LDD  R31,Y+@0+1
	LDD  R22,Y+@0+2
	LDD  R23,Y+@0+3
	.ENDM

	.MACRO __GETD2S
	LDD  R26,Y+@0
	LDD  R27,Y+@0+1
	LDD  R24,Y+@0+2
	LDD  R25,Y+@0+3
	.ENDM

	.MACRO __PUTD1S
	STD  Y+@0,R30
	STD  Y+@0+1,R31
	STD  Y+@0+2,R22
	STD  Y+@0+3,R23
	.ENDM

	.MACRO __PUTD2S
	STD  Y+@0,R26
	STD  Y+@0+1,R27
	STD  Y+@0+2,R24
	STD  Y+@0+3,R25
	.ENDM

	.MACRO __PUTDZ2
	STD  Z+@0,R26
	STD  Z+@0+1,R27
	STD  Z+@0+2,R24
	STD  Z+@0+3,R25
	.ENDM

	.MACRO __CLRD1S
	STD  Y+@0,R30
	STD  Y+@0+1,R30
	STD  Y+@0+2,R30
	STD  Y+@0+3,R30
	.ENDM

	.MACRO __POINTB1MN
	LDI  R30,LOW(@0+(@1))
	.ENDM

	.MACRO __POINTW1MN
	LDI  R30,LOW(@0+(@1))
	LDI  R31,HIGH(@0+(@1))
	.ENDM

	.MACRO __POINTD1M
	LDI  R30,LOW(@0)
	LDI  R31,HIGH(@0)
	LDI  R22,BYTE3(@0)
	LDI  R23,BYTE4(@0)
	.ENDM

	.MACRO __POINTW1FN
	LDI  R30,LOW(2*@0+(@1))
	LDI  R31,HIGH(2*@0+(@1))
	.ENDM

	.MACRO __POINTD1FN
	LDI  R30,LOW(2*@0+(@1))
	LDI  R31,HIGH(2*@0+(@1))
	LDI  R22,BYTE3(2*@0+(@1))
	LDI  R23,BYTE4(2*@0+(@1))
	.ENDM

	.MACRO __POINTB2MN
	LDI  R26,LOW(@0+(@1))
	.ENDM

	.MACRO __POINTW2MN
	LDI  R26,LOW(@0+(@1))
	LDI  R27,HIGH(@0+(@1))
	.ENDM

	.MACRO __POINTW2FN
	LDI  R26,LOW(2*@0+(@1))
	LDI  R27,HIGH(2*@0+(@1))
	.ENDM

	.MACRO __POINTD2FN
	LDI  R26,LOW(2*@0+(@1))
	LDI  R27,HIGH(2*@0+(@1))
	LDI  R24,BYTE3(2*@0+(@1))
	LDI  R25,BYTE4(2*@0+(@1))
	.ENDM

	.MACRO __POINTBRM
	LDI  R@0,LOW(@1)
	.ENDM

	.MACRO __POINTWRM
	LDI  R@0,LOW(@2)
	LDI  R@1,HIGH(@2)
	.ENDM

	.MACRO __POINTBRMN
	LDI  R@0,LOW(@1+(@2))
	.ENDM

	.MACRO __POINTWRMN
	LDI  R@0,LOW(@2+(@3))
	LDI  R@1,HIGH(@2+(@3))
	.ENDM

	.MACRO __POINTWRFN
	LDI  R@0,LOW(@2*2+(@3))
	LDI  R@1,HIGH(@2*2+(@3))
	.ENDM

	.MACRO __GETD1N
	LDI  R30,LOW(@0)
	LDI  R31,HIGH(@0)
	LDI  R22,BYTE3(@0)
	LDI  R23,BYTE4(@0)
	.ENDM

	.MACRO __GETD2N
	LDI  R26,LOW(@0)
	LDI  R27,HIGH(@0)
	LDI  R24,BYTE3(@0)
	LDI  R25,BYTE4(@0)
	.ENDM

	.MACRO __GETB1MN
	LDS  R30,@0+(@1)
	.ENDM

	.MACRO __GETB1HMN
	LDS  R31,@0+(@1)
	.ENDM

	.MACRO __GETW1MN
	LDS  R30,@0+(@1)
	LDS  R31,@0+(@1)+1
	.ENDM

	.MACRO __GETD1MN
	LDS  R30,@0+(@1)
	LDS  R31,@0+(@1)+1
	LDS  R22,@0+(@1)+2
	LDS  R23,@0+(@1)+3
	.ENDM

	.MACRO __GETBRMN
	LDS  R@0,@1+(@2)
	.ENDM

	.MACRO __GETWRMN
	LDS  R@0,@2+(@3)
	LDS  R@1,@2+(@3)+1
	.ENDM

	.MACRO __GETWRZ
	LDD  R@0,Z+@2
	LDD  R@1,Z+@2+1
	.ENDM

	.MACRO __GETD2Z
	LDD  R26,Z+@0
	LDD  R27,Z+@0+1
	LDD  R24,Z+@0+2
	LDD  R25,Z+@0+3
	.ENDM

	.MACRO __GETB2MN
	LDS  R26,@0+(@1)
	.ENDM

	.MACRO __GETW2MN
	LDS  R26,@0+(@1)
	LDS  R27,@0+(@1)+1
	.ENDM

	.MACRO __GETD2MN
	LDS  R26,@0+(@1)
	LDS  R27,@0+(@1)+1
	LDS  R24,@0+(@1)+2
	LDS  R25,@0+(@1)+3
	.ENDM

	.MACRO __PUTB1MN
	STS  @0+(@1),R30
	.ENDM

	.MACRO __PUTW1MN
	STS  @0+(@1),R30
	STS  @0+(@1)+1,R31
	.ENDM

	.MACRO __PUTD1MN
	STS  @0+(@1),R30
	STS  @0+(@1)+1,R31
	STS  @0+(@1)+2,R22
	STS  @0+(@1)+3,R23
	.ENDM

	.MACRO __PUTB1EN
	LDI  R26,LOW(@0+(@1))
	LDI  R27,HIGH(@0+(@1))
	CALL __EEPROMWRB
	.ENDM

	.MACRO __PUTW1EN
	LDI  R26,LOW(@0+(@1))
	LDI  R27,HIGH(@0+(@1))
	CALL __EEPROMWRW
	.ENDM

	.MACRO __PUTD1EN
	LDI  R26,LOW(@0+(@1))
	LDI  R27,HIGH(@0+(@1))
	CALL __EEPROMWRD
	.ENDM

	.MACRO __PUTBR0MN
	STS  @0+(@1),R0
	.ENDM

	.MACRO __PUTBMRN
	STS  @0+(@1),R@2
	.ENDM

	.MACRO __PUTWMRN
	STS  @0+(@1),R@2
	STS  @0+(@1)+1,R@3
	.ENDM

	.MACRO __PUTBZR
	STD  Z+@1,R@0
	.ENDM

	.MACRO __PUTWZR
	STD  Z+@2,R@0
	STD  Z+@2+1,R@1
	.ENDM

	.MACRO __GETW1R
	MOV  R30,R@0
	MOV  R31,R@1
	.ENDM

	.MACRO __GETW2R
	MOV  R26,R@0
	MOV  R27,R@1
	.ENDM

	.MACRO __GETWRN
	LDI  R@0,LOW(@2)
	LDI  R@1,HIGH(@2)
	.ENDM

	.MACRO __PUTW1R
	MOV  R@0,R30
	MOV  R@1,R31
	.ENDM

	.MACRO __PUTW2R
	MOV  R@0,R26
	MOV  R@1,R27
	.ENDM

	.MACRO __ADDWRN
	SUBI R@0,LOW(-@2)
	SBCI R@1,HIGH(-@2)
	.ENDM

	.MACRO __ADDWRR
	ADD  R@0,R@2
	ADC  R@1,R@3
	.ENDM

	.MACRO __SUBWRN
	SUBI R@0,LOW(@2)
	SBCI R@1,HIGH(@2)
	.ENDM

	.MACRO __SUBWRR
	SUB  R@0,R@2
	SBC  R@1,R@3
	.ENDM

	.MACRO __ANDWRN
	ANDI R@0,LOW(@2)
	ANDI R@1,HIGH(@2)
	.ENDM

	.MACRO __ANDWRR
	AND  R@0,R@2
	AND  R@1,R@3
	.ENDM

	.MACRO __ORWRN
	ORI  R@0,LOW(@2)
	ORI  R@1,HIGH(@2)
	.ENDM

	.MACRO __ORWRR
	OR   R@0,R@2
	OR   R@1,R@3
	.ENDM

	.MACRO __EORWRR
	EOR  R@0,R@2
	EOR  R@1,R@3
	.ENDM

	.MACRO __GETWRS
	LDD  R@0,Y+@2
	LDD  R@1,Y+@2+1
	.ENDM

	.MACRO __PUTBSR
	STD  Y+@1,R@0
	.ENDM

	.MACRO __PUTWSR
	STD  Y+@2,R@0
	STD  Y+@2+1,R@1
	.ENDM

	.MACRO __MOVEWRR
	MOV  R@0,R@2
	MOV  R@1,R@3
	.ENDM

	.MACRO __INWR
	IN   R@0,@2
	IN   R@1,@2+1
	.ENDM

	.MACRO __OUTWR
	OUT  @2+1,R@1
	OUT  @2,R@0
	.ENDM

	.MACRO __CALL1MN
	LDS  R30,@0+(@1)
	LDS  R31,@0+(@1)+1
	ICALL
	.ENDM

	.MACRO __CALL1FN
	LDI  R30,LOW(2*@0+(@1))
	LDI  R31,HIGH(2*@0+(@1))
	CALL __GETW1PF
	ICALL
	.ENDM

	.MACRO __CALL2EN
	PUSH R26
	PUSH R27
	LDI  R26,LOW(@0+(@1))
	LDI  R27,HIGH(@0+(@1))
	CALL __EEPROMRDW
	POP  R27
	POP  R26
	ICALL
	.ENDM

	.MACRO __CALL2EX
	SUBI R26,LOW(-@0)
	SBCI R27,HIGH(-@0)
	CALL __EEPROMRDD
	ICALL
	.ENDM

	.MACRO __GETW1STACK
	IN   R30,SPL
	IN   R31,SPH
	ADIW R30,@0+1
	LD   R0,Z+
	LD   R31,Z
	MOV  R30,R0
	.ENDM

	.MACRO __GETD1STACK
	IN   R30,SPL
	IN   R31,SPH
	ADIW R30,@0+1
	LD   R0,Z+
	LD   R1,Z+
	LD   R22,Z
	MOVW R30,R0
	.ENDM

	.MACRO __NBST
	BST  R@0,@1
	IN   R30,SREG
	LDI  R31,0x40
	EOR  R30,R31
	OUT  SREG,R30
	.ENDM


	.MACRO __PUTB1SN
	LDD  R26,Y+@0
	LDD  R27,Y+@0+1
	SUBI R26,LOW(-@1)
	SBCI R27,HIGH(-@1)
	ST   X,R30
	.ENDM

	.MACRO __PUTW1SN
	LDD  R26,Y+@0
	LDD  R27,Y+@0+1
	SUBI R26,LOW(-@1)
	SBCI R27,HIGH(-@1)
	ST   X+,R30
	ST   X,R31
	.ENDM

	.MACRO __PUTD1SN
	LDD  R26,Y+@0
	LDD  R27,Y+@0+1
	SUBI R26,LOW(-@1)
	SBCI R27,HIGH(-@1)
	CALL __PUTDP1
	.ENDM

	.MACRO __PUTB1SNS
	LDD  R26,Y+@0
	LDD  R27,Y+@0+1
	ADIW R26,@1
	ST   X,R30
	.ENDM

	.MACRO __PUTW1SNS
	LDD  R26,Y+@0
	LDD  R27,Y+@0+1
	ADIW R26,@1
	ST   X+,R30
	ST   X,R31
	.ENDM

	.MACRO __PUTD1SNS
	LDD  R26,Y+@0
	LDD  R27,Y+@0+1
	ADIW R26,@1
	CALL __PUTDP1
	.ENDM

	.MACRO __PUTB1PMN
	LDS  R26,@0
	LDS  R27,@0+1
	SUBI R26,LOW(-@1)
	SBCI R27,HIGH(-@1)
	ST   X,R30
	.ENDM

	.MACRO __PUTW1PMN
	LDS  R26,@0
	LDS  R27,@0+1
	SUBI R26,LOW(-@1)
	SBCI R27,HIGH(-@1)
	ST   X+,R30
	ST   X,R31
	.ENDM

	.MACRO __PUTD1PMN
	LDS  R26,@0
	LDS  R27,@0+1
	SUBI R26,LOW(-@1)
	SBCI R27,HIGH(-@1)
	CALL __PUTDP1
	.ENDM

	.MACRO __PUTB1PMNS
	LDS  R26,@0
	LDS  R27,@0+1
	ADIW R26,@1
	ST   X,R30
	.ENDM

	.MACRO __PUTW1PMNS
	LDS  R26,@0
	LDS  R27,@0+1
	ADIW R26,@1
	ST   X+,R30
	ST   X,R31
	.ENDM

	.MACRO __PUTD1PMNS
	LDS  R26,@0
	LDS  R27,@0+1
	ADIW R26,@1
	CALL __PUTDP1
	.ENDM

	.MACRO __PUTB1RN
	MOVW R26,R@0
	SUBI R26,LOW(-@1)
	SBCI R27,HIGH(-@1)
	ST   X,R30
	.ENDM

	.MACRO __PUTW1RN
	MOVW R26,R@0
	SUBI R26,LOW(-@1)
	SBCI R27,HIGH(-@1)
	ST   X+,R30
	ST   X,R31
	.ENDM

	.MACRO __PUTD1RN
	MOVW R26,R@0
	SUBI R26,LOW(-@1)
	SBCI R27,HIGH(-@1)
	CALL __PUTDP1
	.ENDM

	.MACRO __PUTB1RNS
	MOVW R26,R@0
	ADIW R26,@1
	ST   X,R30
	.ENDM

	.MACRO __PUTW1RNS
	MOVW R26,R@0
	ADIW R26,@1
	ST   X+,R30
	ST   X,R31
	.ENDM

	.MACRO __PUTD1RNS
	MOVW R26,R@0
	ADIW R26,@1
	CALL __PUTDP1
	.ENDM

	.MACRO __PUTB1RON
	MOV  R26,R@0
	MOV  R27,R@1
	SUBI R26,LOW(-@2)
	SBCI R27,HIGH(-@2)
	ST   X,R30
	.ENDM

	.MACRO __PUTW1RON
	MOV  R26,R@0
	MOV  R27,R@1
	SUBI R26,LOW(-@2)
	SBCI R27,HIGH(-@2)
	ST   X+,R30
	ST   X,R31
	.ENDM

	.MACRO __PUTD1RON
	MOV  R26,R@0
	MOV  R27,R@1
	SUBI R26,LOW(-@2)
	SBCI R27,HIGH(-@2)
	CALL __PUTDP1
	.ENDM

	.MACRO __PUTB1RONS
	MOV  R26,R@0
	MOV  R27,R@1
	ADIW R26,@2
	ST   X,R30
	.ENDM

	.MACRO __PUTW1RONS
	MOV  R26,R@0
	MOV  R27,R@1
	ADIW R26,@2
	ST   X+,R30
	ST   X,R31
	.ENDM

	.MACRO __PUTD1RONS
	MOV  R26,R@0
	MOV  R27,R@1
	ADIW R26,@2
	CALL __PUTDP1
	.ENDM


	.MACRO __GETB1SX
	MOVW R30,R28
	SUBI R30,LOW(-@0)
	SBCI R31,HIGH(-@0)
	LD   R30,Z
	.ENDM

	.MACRO __GETB1HSX
	MOVW R30,R28
	SUBI R30,LOW(-@0)
	SBCI R31,HIGH(-@0)
	LD   R31,Z
	.ENDM

	.MACRO __GETW1SX
	MOVW R30,R28
	SUBI R30,LOW(-@0)
	SBCI R31,HIGH(-@0)
	LD   R0,Z+
	LD   R31,Z
	MOV  R30,R0
	.ENDM

	.MACRO __GETD1SX
	MOVW R30,R28
	SUBI R30,LOW(-@0)
	SBCI R31,HIGH(-@0)
	LD   R0,Z+
	LD   R1,Z+
	LD   R22,Z+
	LD   R23,Z
	MOVW R30,R0
	.ENDM

	.MACRO __GETB2SX
	MOVW R26,R28
	SUBI R26,LOW(-@0)
	SBCI R27,HIGH(-@0)
	LD   R26,X
	.ENDM

	.MACRO __GETW2SX
	MOVW R26,R28
	SUBI R26,LOW(-@0)
	SBCI R27,HIGH(-@0)
	LD   R0,X+
	LD   R27,X
	MOV  R26,R0
	.ENDM

	.MACRO __GETD2SX
	MOVW R26,R28
	SUBI R26,LOW(-@0)
	SBCI R27,HIGH(-@0)
	LD   R0,X+
	LD   R1,X+
	LD   R24,X+
	LD   R25,X
	MOVW R26,R0
	.ENDM

	.MACRO __GETBRSX
	MOVW R30,R28
	SUBI R30,LOW(-@1)
	SBCI R31,HIGH(-@1)
	LD   R@0,Z
	.ENDM

	.MACRO __GETWRSX
	MOVW R30,R28
	SUBI R30,LOW(-@2)
	SBCI R31,HIGH(-@2)
	LD   R@0,Z+
	LD   R@1,Z
	.ENDM

	.MACRO __GETBRSX2
	MOVW R26,R28
	SUBI R26,LOW(-@1)
	SBCI R27,HIGH(-@1)
	LD   R@0,X
	.ENDM

	.MACRO __GETWRSX2
	MOVW R26,R28
	SUBI R26,LOW(-@2)
	SBCI R27,HIGH(-@2)
	LD   R@0,X+
	LD   R@1,X
	.ENDM

	.MACRO __LSLW8SX
	MOVW R30,R28
	SUBI R30,LOW(-@0)
	SBCI R31,HIGH(-@0)
	LD   R31,Z
	CLR  R30
	.ENDM

	.MACRO __PUTB1SX
	MOVW R26,R28
	SUBI R26,LOW(-@0)
	SBCI R27,HIGH(-@0)
	ST   X,R30
	.ENDM

	.MACRO __PUTW1SX
	MOVW R26,R28
	SUBI R26,LOW(-@0)
	SBCI R27,HIGH(-@0)
	ST   X+,R30
	ST   X,R31
	.ENDM

	.MACRO __PUTD1SX
	MOVW R26,R28
	SUBI R26,LOW(-@0)
	SBCI R27,HIGH(-@0)
	ST   X+,R30
	ST   X+,R31
	ST   X+,R22
	ST   X,R23
	.ENDM

	.MACRO __CLRW1SX
	MOVW R26,R28
	SUBI R26,LOW(-@0)
	SBCI R27,HIGH(-@0)
	ST   X+,R30
	ST   X,R30
	.ENDM

	.MACRO __CLRD1SX
	MOVW R26,R28
	SUBI R26,LOW(-@0)
	SBCI R27,HIGH(-@0)
	ST   X+,R30
	ST   X+,R30
	ST   X+,R30
	ST   X,R30
	.ENDM

	.MACRO __PUTB2SX
	MOVW R30,R28
	SUBI R30,LOW(-@0)
	SBCI R31,HIGH(-@0)
	ST   Z,R26
	.ENDM

	.MACRO __PUTW2SX
	MOVW R30,R28
	SUBI R30,LOW(-@0)
	SBCI R31,HIGH(-@0)
	ST   Z+,R26
	ST   Z,R27
	.ENDM

	.MACRO __PUTD2SX
	MOVW R30,R28
	SUBI R30,LOW(-@0)
	SBCI R31,HIGH(-@0)
	ST   Z+,R26
	ST   Z+,R27
	ST   Z+,R24
	ST   Z,R25
	.ENDM

	.MACRO __PUTBSRX
	MOVW R30,R28
	SUBI R30,LOW(-@1)
	SBCI R31,HIGH(-@1)
	ST   Z,R@0
	.ENDM

	.MACRO __PUTWSRX
	MOVW R30,R28
	SUBI R30,LOW(-@2)
	SBCI R31,HIGH(-@2)
	ST   Z+,R@0
	ST   Z,R@1
	.ENDM

	.MACRO __PUTB1SNX
	MOVW R26,R28
	SUBI R26,LOW(-@0)
	SBCI R27,HIGH(-@0)
	LD   R0,X+
	LD   R27,X
	MOV  R26,R0
	SUBI R26,LOW(-@1)
	SBCI R27,HIGH(-@1)
	ST   X,R30
	.ENDM

	.MACRO __PUTW1SNX
	MOVW R26,R28
	SUBI R26,LOW(-@0)
	SBCI R27,HIGH(-@0)
	LD   R0,X+
	LD   R27,X
	MOV  R26,R0
	SUBI R26,LOW(-@1)
	SBCI R27,HIGH(-@1)
	ST   X+,R30
	ST   X,R31
	.ENDM

	.MACRO __PUTD1SNX
	MOVW R26,R28
	SUBI R26,LOW(-@0)
	SBCI R27,HIGH(-@0)
	LD   R0,X+
	LD   R27,X
	MOV  R26,R0
	SUBI R26,LOW(-@1)
	SBCI R27,HIGH(-@1)
	ST   X+,R30
	ST   X+,R31
	ST   X+,R22
	ST   X,R23
	.ENDM

	.MACRO __MULBRR
	MULS R@0,R@1
	MOVW R30,R0
	.ENDM

	.MACRO __MULBRRU
	MUL  R@0,R@1
	MOVW R30,R0
	.ENDM

	.MACRO __MULBRR0
	MULS R@0,R@1
	.ENDM

	.MACRO __MULBRRU0
	MUL  R@0,R@1
	.ENDM

	.MACRO __MULBNWRU
	LDI  R26,@2
	MUL  R26,R@0
	MOVW R30,R0
	MUL  R26,R@1
	ADD  R31,R0
	.ENDM

;NAME DEFINITIONS FOR GLOBAL VARIABLES ALLOCATED TO REGISTERS
	.DEF _P_Add=R5
	.DEF _Code_tay_cam1=R4
	.DEF _Code_tay_cam2=R7
	.DEF _Code_tay_cam3=R6
	.DEF _Code_tay_cam4=R9
	.DEF _data_receive_2=R8
	.DEF _result=R11

	.CSEG
	.ORG 0x00

;START OF CODE MARKER
__START_OF_CODE:

;INTERRUPT VECTORS
	JMP  __RESET
	JMP  0x00
	JMP  0x00
	JMP  0x00
	JMP  0x00
	JMP  0x00
	JMP  0x00
	JMP  0x00
	JMP  0x00
	JMP  0x00
	JMP  0x00
	JMP  0x00
	JMP  0x00
	JMP  0x00
	JMP  0x00
	JMP  0x00
	JMP  0x00
	JMP  0x00
	JMP  0x00
	JMP  0x00
	JMP  0x00

_font5x7:
	.DB  0x5,0x7,0x20,0x60,0x0,0x0,0x0,0x0
	.DB  0x0,0x0,0x0,0x4,0xA,0x4,0x0,0x7
	.DB  0x0,0x7,0x0,0x14,0x7F,0x14,0x7F,0x14
	.DB  0x24,0x2A,0x7F,0x2A,0x12,0x23,0x13,0x8
	.DB  0x64,0x62,0x36,0x49,0x55,0x22,0x50,0x0
	.DB  0x5,0x3,0x0,0x0,0x0,0x1C,0x22,0x41
	.DB  0x0,0x0,0x41,0x22,0x1C,0x0,0x8,0x2A
	.DB  0x1C,0x2A,0x8,0x8,0x8,0x3E,0x8,0x8
	.DB  0x0,0x50,0x30,0x0,0x0,0x8,0x8,0x8
	.DB  0x8,0x8,0x0,0x30,0x30,0x0,0x0,0x20
	.DB  0x10,0x8,0x4,0x2,0x3E,0x51,0x49,0x45
	.DB  0x3E,0x0,0x42,0x7F,0x40,0x0,0x42,0x61
	.DB  0x51,0x49,0x46,0x21,0x41,0x45,0x4B,0x31
	.DB  0x18,0x14,0x12,0x7F,0x10,0x27,0x45,0x45
	.DB  0x45,0x39,0x3C,0x4A,0x49,0x49,0x30,0x1
	.DB  0x71,0x9,0x5,0x3,0x36,0x49,0x49,0x49
	.DB  0x36,0x6,0x49,0x49,0x29,0x1E,0x0,0x36
	.DB  0x36,0x0,0x0,0x0,0x56,0x36,0x0,0x0
	.DB  0x0,0x8,0x14,0x22,0x41,0x14,0x14,0x14
	.DB  0x14,0x14,0x41,0x22,0x14,0x8,0x0,0x2
	.DB  0x1,0x51,0x9,0x6,0x32,0x49,0x79,0x41
	.DB  0x3E,0x7E,0x11,0x11,0x11,0x7E,0x7F,0x49
	.DB  0x49,0x49,0x36,0x3E,0x41,0x41,0x41,0x22
	.DB  0x7F,0x41,0x41,0x22,0x1C,0x7F,0x49,0x49
	.DB  0x49,0x41,0x7F,0x9,0x9,0x1,0x1,0x3E
	.DB  0x41,0x41,0x51,0x32,0x7F,0x8,0x8,0x8
	.DB  0x7F,0x0,0x41,0x7F,0x41,0x0,0x20,0x40
	.DB  0x41,0x3F,0x1,0x7F,0x8,0x14,0x22,0x41
	.DB  0x7F,0x40,0x40,0x40,0x40,0x7F,0x2,0x4
	.DB  0x2,0x7F,0x7F,0x4,0x8,0x10,0x7F,0x3E
	.DB  0x41,0x41,0x41,0x3E,0x7F,0x9,0x9,0x9
	.DB  0x6,0x3E,0x41,0x51,0x21,0x5E,0x7F,0x9
	.DB  0x19,0x29,0x46,0x46,0x49,0x49,0x49,0x31
	.DB  0x1,0x1,0x7F,0x1,0x1,0x3F,0x40,0x40
	.DB  0x40,0x3F,0x1F,0x20,0x40,0x20,0x1F,0x7F
	.DB  0x20,0x18,0x20,0x7F,0x63,0x14,0x8,0x14
	.DB  0x63,0x3,0x4,0x78,0x4,0x3,0x61,0x51
	.DB  0x49,0x45,0x43,0x0,0x0,0x7F,0x41,0x41
	.DB  0x2,0x4,0x8,0x10,0x20,0x41,0x41,0x7F
	.DB  0x0,0x0,0x4,0x2,0x1,0x2,0x4,0x40
	.DB  0x40,0x40,0x40,0x40,0x0,0x1,0x2,0x4
	.DB  0x0,0x20,0x54,0x54,0x54,0x78,0x7F,0x48
	.DB  0x44,0x44,0x38,0x38,0x44,0x44,0x44,0x20
	.DB  0x38,0x44,0x44,0x48,0x7F,0x38,0x54,0x54
	.DB  0x54,0x18,0x8,0x7E,0x9,0x1,0x2,0x8
	.DB  0x14,0x54,0x54,0x3C,0x7F,0x8,0x4,0x4
	.DB  0x78,0x0,0x44,0x7D,0x40,0x0,0x20,0x40
	.DB  0x44,0x3D,0x0,0x0,0x7F,0x10,0x28,0x44
	.DB  0x0,0x41,0x7F,0x40,0x0,0x7C,0x4,0x18
	.DB  0x4,0x78,0x7C,0x8,0x4,0x4,0x78,0x38
	.DB  0x44,0x44,0x44,0x38,0x7C,0x14,0x14,0x14
	.DB  0x8,0x8,0x14,0x14,0x18,0x7C,0x7C,0x8
	.DB  0x4,0x4,0x8,0x48,0x54,0x54,0x54,0x20
	.DB  0x4,0x3F,0x44,0x40,0x20,0x3C,0x40,0x40
	.DB  0x20,0x7C,0x1C,0x20,0x40,0x20,0x1C,0x3C
	.DB  0x40,0x30,0x40,0x3C,0x44,0x28,0x10,0x28
	.DB  0x44,0xC,0x50,0x50,0x50,0x3C,0x44,0x64
	.DB  0x54,0x4C,0x44,0x0,0x8,0x36,0x41,0x0
	.DB  0x0,0x0,0x7F,0x0,0x0,0x0,0x41,0x36
	.DB  0x8,0x0,0x2,0x1,0x2,0x4,0x2,0x7F
	.DB  0x41,0x41,0x41,0x7F
_tbl10_G101:
	.DB  0x10,0x27,0xE8,0x3,0x64,0x0,0xA,0x0
	.DB  0x1,0x0
_tbl16_G101:
	.DB  0x0,0x10,0x0,0x1,0x10,0x0,0x1,0x0
__glcd_mask:
	.DB  0x0,0x1,0x3,0x7,0xF,0x1F,0x3F,0x7F
	.DB  0xFF

;GLOBAL REGISTER VARIABLES INITIALIZATION
__REG_VARS:
	.DB  0xA3

_0x0:
	.DB  0x4E,0x6F,0x64,0x65,0x3A,0x20,0x0,0x33
	.DB  0x0,0x54,0x65,0x6D,0x70,0x3A,0x20,0x0
	.DB  0x48,0x75,0x6D,0x69,0x64,0x3A,0x20,0x0
	.DB  0x57,0x61,0x74,0x65,0x72,0x3A,0x20,0x0
	.DB  0x21,0x43,0x0,0x63,0x6D,0x0,0x32,0x31
	.DB  0x0,0x37,0x35,0x0,0x34,0x35,0x0
_0x2000060:
	.DB  0x1
_0x2000000:
	.DB  0x2D,0x4E,0x41,0x4E,0x0,0x49,0x4E,0x46
	.DB  0x0

__GLOBAL_INI_TBL:
	.DW  0x01
	.DW  0x05
	.DW  __REG_VARS*2

	.DW  0x07
	.DW  _0xCE
	.DW  _0x0*2

	.DW  0x02
	.DW  _0xCE+7
	.DW  _0x0*2+7

	.DW  0x07
	.DW  _0xCE+9
	.DW  _0x0*2+9

	.DW  0x08
	.DW  _0xCE+16
	.DW  _0x0*2+16

	.DW  0x08
	.DW  _0xCE+24
	.DW  _0x0*2+24

	.DW  0x03
	.DW  _0xCE+32
	.DW  _0x0*2+32

	.DW  0x03
	.DW  _0xCE+35
	.DW  _0x0*2+35

	.DW  0x03
	.DW  _0xCF
	.DW  _0x0*2+38

	.DW  0x03
	.DW  _0xCF+3
	.DW  _0x0*2+41

	.DW  0x03
	.DW  _0xCF+6
	.DW  _0x0*2+44

	.DW  0x01
	.DW  __seed_G100
	.DW  _0x2000060*2

_0xFFFFFFFF:
	.DW  0

#define __GLOBAL_INI_TBL_PRESENT 1

__RESET:
	CLI
	CLR  R30
	OUT  EECR,R30

;INTERRUPT VECTORS ARE PLACED
;AT THE START OF FLASH
	LDI  R31,1
	OUT  MCUCR,R31
	OUT  MCUCR,R30

;CLEAR R2-R14
	LDI  R24,(14-2)+1
	LDI  R26,2
	CLR  R27
__CLEAR_REG:
	ST   X+,R30
	DEC  R24
	BRNE __CLEAR_REG

;CLEAR SRAM
	LDI  R24,LOW(__CLEAR_SRAM_SIZE)
	LDI  R25,HIGH(__CLEAR_SRAM_SIZE)
	LDI  R26,__SRAM_START
__CLEAR_SRAM:
	ST   X+,R30
	SBIW R24,1
	BRNE __CLEAR_SRAM

;GLOBAL VARIABLES INITIALIZATION
	LDI  R30,LOW(__GLOBAL_INI_TBL*2)
	LDI  R31,HIGH(__GLOBAL_INI_TBL*2)
__GLOBAL_INI_NEXT:
	LPM  R24,Z+
	LPM  R25,Z+
	SBIW R24,0
	BREQ __GLOBAL_INI_END
	LPM  R26,Z+
	LPM  R27,Z+
	LPM  R0,Z+
	LPM  R1,Z+
	MOVW R22,R30
	MOVW R30,R0
__GLOBAL_INI_LOOP:
	LPM  R0,Z+
	ST   X+,R0
	SBIW R24,1
	BRNE __GLOBAL_INI_LOOP
	MOVW R30,R22
	RJMP __GLOBAL_INI_NEXT
__GLOBAL_INI_END:

;HARDWARE STACK POINTER INITIALIZATION
	LDI  R30,LOW(__SRAM_END-__HEAP_SIZE)
	OUT  SPL,R30
	LDI  R30,HIGH(__SRAM_END-__HEAP_SIZE)
	OUT  SPH,R30

;DATA STACK POINTER INITIALIZATION
	LDI  R28,LOW(__SRAM_START+__DSTACK_SIZE)
	LDI  R29,HIGH(__SRAM_START+__DSTACK_SIZE)

	JMP  _main

	.ESEG
	.ORG 0

	.DSEG
	.ORG 0x260

	.CSEG
;unsigned char P_Add=0xA3, Code_tay_cam1, Code_tay_cam2, Code_tay_cam3, Code_tay_cam4;
;
;#include <io.h>
	#ifndef __SLEEP_DEFINED__
	#define __SLEEP_DEFINED__
	.EQU __se_bit=0x80
	.EQU __sm_mask=0x70
	.EQU __sm_powerdown=0x20
	.EQU __sm_powersave=0x30
	.EQU __sm_standby=0x60
	.EQU __sm_ext_standby=0x70
	.EQU __sm_adc_noise_red=0x10
	.SET power_ctrl_reg=mcucr
	#endif
;#include <mega32a.h>
;#include <delay.h>
;#include <stdlib.h>
;#include <stdio.h>
;#include <glcd.h>
;#include <font5x7.h>
;#include "define.c"
;//define NRF
;#define CE PORTD.2     //out 1
;#define CE_DDR DDRD.2
;#define CSN PORTD.7      //out 1
;#define CSN_DDR DDRD.7
;#define SCK PORTD.3       //out 1
;#define SCK_DDR DDRD.3
;#define MOSI PORTD.6      //out 1
;#define MOSI_DDR DDRD.6
;#define MISO PIND.4       //in p
;#define MISO_DDR DDRD.4
;#define IRQ PIND.5        //in p
;#define IRQ_DDR DDRD.5
;//----------------define button--------
;#define bt_reset PINB.3
;#define bt_reset_DDR DDRB.3
;#define bt_enter PINB.4
;#define bt_enter_DDR DDRB.4
;#define bt_back PINB.2
;#define bt_back_DDR DDRB.2
;#define bt_down PINB.1
;#define bt_down_DDR DDRB.1
;//----------------define LED ----------
;#define LED PORTA.6
;#define LED_DDR DDRA.6
;//----------------config NRF-----------
;void init()
; 0000 000A     {

	.CSEG
_init:
; .FSTART _init
;//----------------init glcd nokia------
;        GLCDINIT_t glcd_init_data;
;        glcd_init_data.font=font5x7;
	SBIW R28,8
;	glcd_init_data -> Y+0
	LDI  R30,LOW(_font5x7*2)
	LDI  R31,HIGH(_font5x7*2)
	ST   Y,R30
	STD  Y+1,R31
;		glcd_init_data.readxmem=NULL;
	LDI  R30,LOW(0)
	STD  Y+2,R30
	STD  Y+2+1,R30
;		glcd_init_data.writexmem=NULL;
	STD  Y+4,R30
	STD  Y+4+1,R30
;		glcd_init_data.temp_coef=150;
	LDD  R30,Y+6
	ANDI R30,LOW(0xFC)
	ORI  R30,2
	STD  Y+6,R30
;		glcd_init_data.bias=3;
	ANDI R30,LOW(0xE3)
	ORI  R30,LOW(0xC)
	STD  Y+6,R30
;		glcd_init_data.vlcd=60;
	LDD  R30,Y+7
	ANDI R30,LOW(0x80)
	ORI  R30,LOW(0x3C)
	STD  Y+7,R30
;		glcd_init(&glcd_init_data);
	MOVW R26,R28
	CALL _glcd_init
;//-------------config NRF PIN--------
;        CE_DDR = 1;
	SBI  0x11,2
;        CE = 1;
	SBI  0x12,2
;        CSN_DDR = 1;
	SBI  0x11,7
;        CSN = 1;
	SBI  0x12,7
;        SCK_DDR = 1;
	SBI  0x11,3
;        SCK = 1;
	SBI  0x12,3
;        MOSI_DDR = 1;
	SBI  0x11,6
;        MOSI = 1;
	SBI  0x12,6
;        MISO_DDR = 0;
	CBI  0x11,4
;        MISO = 1;
	SBI  0x10,4
;        IRQ_DDR = 0;
	CBI  0x11,5
;        IRQ = 1;
	SBI  0x10,5
;//----------------config LED-----------
;        LED_DDR = 1;
	SBI  0x1A,6
;        LED = 0;
	CBI  0x1B,6
;//----------------config button--------
;        bt_reset_DDR = 0;
	CBI  0x17,3
;        bt_reset = 1;
	SBI  0x16,3
;        bt_enter_DDR = 0;
	CBI  0x17,4
;        bt_enter = 1;
	SBI  0x16,4
;        bt_back_DDR = 0;
	CBI  0x17,2
;        bt_back = 1;
	SBI  0x16,2
;        bt_down_DDR = 0;
	CBI  0x17,1
;        bt_down = 1;
	SBI  0x16,1
;        #asm("sei")
	sei
;    }
	JMP  _0x2120007
; .FEND
;#include "nrf_code.c"
;#define _BV(x) (1<<(x))
;#define RX_DR       6
;#define TX_DS       5
;#define MAX_RT      4
;#define STATUS      0x07
;
;typedef struct
;{
;    int flag;
;    float a;
;    float b;
;    float c;
;    float d;
;}data;
;
;
;typedef struct
;{
;    int flag;
;    int light;
;    int humi;
;    int temp;
;    int sm;
;}station_info;
;
;typedef struct
;{
;    int analog_l;
;    int analog_r;
;    int digital_l;
;    int digital_r;
;}tay_cam_info;
;
;station_info station_receive;
;tay_cam_info tay_cam_receive;
;
;data data_receive;
;unsigned char data_receive_2;
;unsigned char result;
;
;
;void config();
;
;
;//-----------------------------TX Mode -----------------------------------------------//
;unsigned char SPI_RW_TX(unsigned char Buff);                                       //Function used for text moving
;void RF_Init_TX();                                                                 //Function allow to Initialize RF dev ...
;unsigned char RF_Write_TX(unsigned char Reg_Add, unsigned char Value);                      //Function to write a value  ...
;void RF_Write_Address_TX(unsigned char Address);                                   //Function to write TX address for pi ...
;void RF_Write_Address_2_TX(unsigned char Address);                                 //Function to write TX address for pi ...
;void RX_Mode_Active_TX();                                                          //Function to put nRF in RX mode
;void TX_Mode_Active_TX();                                                          //Function to put nRF in TX mode
;void RF_Config_TX();                                                               //Function to config the nRF
;void RF_TX_Send_TX(data send);                                                     //Function to send data Value to RX A ...
;void RF_TX_Send_2_TX(data send);                                                   //Function to send data Value to RX a ...
;
;
;//---------------------------------RX Mode----------------------------------------------//
;unsigned char SPI_RW_RX(unsigned char Buff);                                       //Function used for text moving
;unsigned char SPI_Read_RX(void);
;void RF_Init_RX();                                                                 //Function allow to Initialize RF dev ...
;void RF_Write_RX(unsigned char Reg_Add, unsigned char Value);                      //Function to write a value to a regi ...
;void RF_Command_RX(unsigned char command);                                         //Function to write a command
;void RF_Write_Address_RX(unsigned char Address1, unsigned char Address2, unsigned char Address3, unsigned char Address4) ...
;void RX_Mode_RX();                                                          //Function to put nRF in RX mode
;void RF_Config_RX();                                                               //Function to config the nRF
;void RF_Read_RX();                                                     //Function to read the data from RX FIFO
;void RF_Write2_RX(unsigned char Reg_Add, unsigned char Value);
;void RF_Write3_RX(unsigned char Reg_Add, unsigned char Value);
;void RF_Read_RX_2();
;
;
;
;
;void config()
; 0000 000B {
_config:
; .FSTART _config
;delay_us(10);
	__DELAY_USB 27
;RF_Write_TX(0x00,0b00011111);     //CONFIG 0x00
	LDI  R30,LOW(0)
	ST   -Y,R30
	LDI  R26,LOW(31)
	RCALL _RF_Write_TX
;delay_ms(2);
	LDI  R26,LOW(2)
	LDI  R27,0
	CALL _delay_ms
;RF_Write_TX(0x07,0b01111110);
	LDI  R30,LOW(7)
	ST   -Y,R30
	LDI  R26,LOW(126)
	RCALL _RF_Write_TX
;RF_Write_TX(0x1D, 0b00000100);
	LDI  R30,LOW(29)
	ST   -Y,R30
	LDI  R26,LOW(4)
	RCALL _RF_Write_TX
;RF_Write_TX(0x05,0b00000010);     //RF_CH 0x05        Choose frequency channel
	LDI  R30,LOW(5)
	ST   -Y,R30
	LDI  R26,LOW(2)
	RJMP _0x212000F
;}
; .FEND
;
;
;
;unsigned char SPI_RW_TX(unsigned char Buff){
_SPI_RW_TX:
; .FSTART _SPI_RW_TX
;    unsigned char bit_ctr;
;       for(bit_ctr=0;bit_ctr<8;bit_ctr++) // output 8-bit
	ST   -Y,R26
	ST   -Y,R17
;	Buff -> Y+1
;	bit_ctr -> R17
	LDI  R17,LOW(0)
_0x30:
	CPI  R17,8
	BRSH _0x31
;       {
;        MOSI = (Buff & 0x80);         // output 'uchar', MSB to MOSI
	LDD  R30,Y+1
	ANDI R30,LOW(0x80)
	BRNE _0x32
	CBI  0x12,6
	RJMP _0x33
_0x32:
	SBI  0x12,6
_0x33:
;        delay_us(5);
	CALL SUBOPT_0x0
;        Buff = (Buff << 1);           // shift next bit into MSB..
;        SCK = 1;                      // Set SCK high..
;        delay_us(5);
;        Buff |= MISO;                 // capture current MISO bit
;        SCK = 0;                      // ..then set SCK low again
;       }
	SUBI R17,-1
	RJMP _0x30
_0x31:
;    return(Buff);                     // return read uchar
	RJMP _0x212000E
;}
; .FEND
;
;void RF_Init_TX()                                                    //Function allow to Initialize RF device
;{
;    CE=1;
;    delay_us(700);
;    CE=0;
;    CSN=1;
;}
;
;unsigned char RF_Write_TX(unsigned char Reg_Add, unsigned char Value)         //Function to write a value to a register  ...
;{
_RF_Write_TX:
; .FSTART _RF_Write_TX
;
;    CSN=0;
	ST   -Y,R26
;	Reg_Add -> Y+1
;	Value -> Y+0
	CBI  0x12,7
;    result = SPI_RW_TX(0b00100000|Reg_Add);
	LDD  R30,Y+1
	ORI  R30,0x20
	MOV  R26,R30
	RCALL _SPI_RW_TX
	MOV  R11,R30
;    SPI_RW_TX(Value);
	CALL SUBOPT_0x1
;    CSN=1;
;    delay_us(10);
;	return result;
	MOV  R30,R11
	RJMP _0x212000D
;}
; .FEND
;
;void RF_Write_Address_TX(unsigned char Address)                      //Function to write TX and RX address
;{
_RF_Write_Address_TX:
; .FSTART _RF_Write_Address_TX
;    CSN=0;
	ST   -Y,R26
;	Address -> Y+0
	CBI  0x12,7
;    RF_Write_TX(0x03,0b00000011);
	LDI  R30,LOW(3)
	ST   -Y,R30
	LDI  R26,LOW(3)
	RCALL _RF_Write_TX
;    CSN=1;
	CALL SUBOPT_0x2
;    delay_us(10);
;    CSN=0;
;    SPI_RW_TX(0b00100000|0x0A);
	LDI  R26,LOW(42)
	CALL SUBOPT_0x3
;    SPI_RW_TX(Address);
;    SPI_RW_TX(Address);
	LD   R26,Y
	RCALL _SPI_RW_TX
;    SPI_RW_TX(Address);
	LD   R26,Y
	CALL SUBOPT_0x3
;    SPI_RW_TX(Address);
;    SPI_RW_TX(Address);
	CALL SUBOPT_0x1
;    CSN=1;
;    delay_us(10);
;    CSN=0;
	CBI  0x12,7
;    SPI_RW_TX(0b00100000|0x10);
	LDI  R26,LOW(48)
	CALL SUBOPT_0x3
;    SPI_RW_TX(Address);
;    SPI_RW_TX(Address);
	LD   R26,Y
	CALL SUBOPT_0x3
;    SPI_RW_TX(Address);
;    SPI_RW_TX(Address);
	LD   R26,Y
	RCALL _SPI_RW_TX
;    SPI_RW_TX(Address);
	CALL SUBOPT_0x1
;
;    CSN=1;
;    delay_us(10);
;}
	JMP  _0x212000B
; .FEND
;
;void RF_Write_Address_TX_2(unsigned char Address)                      //Function to write TX and RX address
;{
;    CSN=0;
;	Address -> Y+0
;    RF_Write_TX(0x03,0b00000011);
;    CSN=1;
;    delay_us(10);
;    CSN=0;
;    SPI_RW_TX(0b00100000|0x0A);
;    SPI_RW_TX(Address);
;    SPI_RW_TX(0x02);
;    SPI_RW_TX(0x02);
;    SPI_RW_TX(0x02);
;    SPI_RW_TX(0x02);
;    CSN=1;
;    delay_us(10);
;    CSN=0;
;    SPI_RW_TX(0b00100000|0x10);
;    SPI_RW_TX(Address);
;    SPI_RW_TX(0x02);
;    SPI_RW_TX(0x02);
;    SPI_RW_TX(0x02);
;    SPI_RW_TX(0x02);
;
;    CSN=1;
;    delay_us(10);
;}
;
;void RF_Mode_TX()                                             //Function to put nRF in TX mode
;{
_RF_Mode_TX:
; .FSTART _RF_Mode_TX
;    CE=0;
	CBI  0x12,2
;    RF_Write_TX(0x00,0b00011110);     //CONFIG 0x00
	LDI  R30,LOW(0)
	ST   -Y,R30
	LDI  R26,LOW(30)
	RJMP _0x212000F
;}
; .FEND
;
;void RF_Config_TX()                                                  //Function to config the nRF
;{
_RF_Config_TX:
; .FSTART _RF_Config_TX
;
;RF_Write_TX(0x1C,0b00000001);
	LDI  R30,LOW(28)
	ST   -Y,R30
	LDI  R26,LOW(1)
	RCALL _RF_Write_TX
;RF_Write_Address_TX(P_Add);
	MOV  R26,R5
	RCALL _RF_Write_Address_TX
;RF_Write_TX(0x02,0b00000001);     //EX_RXADDR 0x02    enable data pipe 0;
	LDI  R30,LOW(2)
	ST   -Y,R30
	LDI  R26,LOW(1)
	RCALL _RF_Write_TX
;RF_Write_TX(0x01,0b00000001);     //EN_AA 0x01        enable auto-acknowledgment
	LDI  R30,LOW(1)
	ST   -Y,R30
	LDI  R26,LOW(1)
_0x212000F:
	RCALL _RF_Write_TX
;}
	RET
; .FEND
;
;void RF_Config_TX_2()                                                  //Function to config the nRF
;{
;
;RF_Write_TX(0x1C,0b00000001);
;RF_Write_Address_TX_2(P_Add);
;RF_Write_TX(0x02,0b00000001);     //EX_RXADDR 0x02    enable data pipe 0;
;RF_Write_TX(0x01,0b00000001);     //EN_AA 0x01        enable auto-acknowledgment
;}
;
;void RF_Command_TX(unsigned char command)                            //Function to write a command
;{
_RF_Command_TX:
; .FSTART _RF_Command_TX
;    CSN=0;
	ST   -Y,R26
;	command -> Y+0
	CBI  0x12,7
;    SPI_RW_TX(command);
	CALL SUBOPT_0x1
;    CSN=1;
;    delay_us(10);
;}
	JMP  _0x212000B
; .FEND
;
;void RF_Send_TX(station_info send)     //Function to send data Value to a specify RX Address
;{
_RF_Send_TX:
; .FSTART _RF_Send_TX
;
;  RF_Write_Address_TX(P_Add);
;	send -> Y+0
	MOV  R26,R5
	RCALL _RF_Write_Address_TX
;  CSN=1;
	CALL SUBOPT_0x2
;  delay_us(10);
;  CSN=0;
;  SPI_RW_TX(0b11100001);
	LDI  R26,LOW(225)
	RCALL _SPI_RW_TX
;  CSN=1;
	CALL SUBOPT_0x2
;  delay_us(10);
;  CSN=0;
;  SPI_RW_TX(0b10100000);
	LDI  R26,LOW(160)
	CALL SUBOPT_0x3
;  SPI_RW_TX(send.flag);
;  SPI_RW_TX(send.light);
	LDD  R26,Y+2
	RCALL _SPI_RW_TX
;  SPI_RW_TX(send.humi);
	LDD  R26,Y+4
	RCALL _SPI_RW_TX
;  SPI_RW_TX(send.temp);
	LDD  R26,Y+6
	RCALL _SPI_RW_TX
;  SPI_RW_TX(send.sm);
	LDD  R26,Y+8
	RCALL _SPI_RW_TX
;  CSN=1;
	SBI  0x12,7
;  CE=1;
	SBI  0x12,2
;  delay_us(500);
	__DELAY_USW 1000
;  CE=0;
	CBI  0x12,2
;  RF_Write_TX(0x07,0b01111110);
	LDI  R30,LOW(7)
	ST   -Y,R30
	LDI  R26,LOW(126)
	RCALL _RF_Write_TX
;  RF_Write_Address_TX(P_Add);
	MOV  R26,R5
	RCALL _RF_Write_Address_TX
;  RF_Command_TX(0b11100001);
	LDI  R26,LOW(225)
	RCALL _RF_Command_TX
;
;  /*status = RF_Write_TX(0x07,0b00111000); //0b00111000
;  tx_ok = status & 0b00010000;
;  return tx_ok; */
;}
	ADIW R28,10
	RET
; .FEND
;
;void RF_Send_TX_2(data send)     //Function to send data Value to a specify RX Address
;{
;
;  RF_Write_Address_TX_2(P_Add);
;	send -> Y+0
;  CSN=1;
;  delay_us(10);
;  CSN=0;
;  SPI_RW_TX(0b11100001);
;  CSN=1;
;  delay_us(10);
;  CSN=0;
;  SPI_RW_TX(0b10100000);
;  SPI_RW_TX(send.flag);
;  SPI_RW_TX(send.a);
;  SPI_RW_TX(send.b);
;  SPI_RW_TX(send.c);
;  SPI_RW_TX(send.d);
;  CSN=1;
;  CE=1;
;  delay_us(500);
;  CE=0;
;  RF_Write_TX(0x07,0b01111110);
;  RF_Write_Address_TX_2(P_Add);
;  RF_Command_TX(0b11100001);
;
;  /*status = RF_Write_TX(0x07,0b00111000); //0b00111000
;  tx_ok = status & 0b00010000;
;  return tx_ok; */
;}
;
;
;
;//--------------------------------------------RX function------------------------------------//
;unsigned char SPI_RW_RX(unsigned char Buff)
;{
_SPI_RW_RX:
; .FSTART _SPI_RW_RX
;    unsigned char bit_ctr;
;       for(bit_ctr=0;bit_ctr<8;bit_ctr++) // output 8-bit
	ST   -Y,R26
	ST   -Y,R17
;	Buff -> Y+1
;	bit_ctr -> R17
	LDI  R17,LOW(0)
_0x7D:
	CPI  R17,8
	BRSH _0x7E
;       {
;        MOSI = (Buff & 0x80);         // output 'uchar', MSB to MOSI
	LDD  R30,Y+1
	ANDI R30,LOW(0x80)
	BRNE _0x7F
	CBI  0x12,6
	RJMP _0x80
_0x7F:
	SBI  0x12,6
_0x80:
;        delay_us(5);
	CALL SUBOPT_0x0
;        Buff = (Buff << 1);           // shift next bit into MSB..
;        SCK = 1;                      // Set SCK high..
;        delay_us(5);
;        Buff |= MISO;                 // capture current MISO bit
;        SCK = 0;                      // ..then set SCK low again
;       }
	SUBI R17,-1
	RJMP _0x7D
_0x7E:
;    return(Buff);                     // return read uchar
_0x212000E:
	LDD  R30,Y+1
	LDD  R17,Y+0
_0x212000D:
	ADIW R28,2
	RET
;}
; .FEND
;
;unsigned char SPI_Read_RX(void)
;{   unsigned char Buff=0;
;    unsigned char bit_ctr;
;       for(bit_ctr=0;bit_ctr<8;bit_ctr++) // output 8-bit
;	Buff -> R17
;	bit_ctr -> R16
;       {
;        delay_us(5);
;        Buff = (Buff << 1);           // shift next bit into MSB..
;        SCK = 1;                      // Set SCK high..
;        delay_us(5);
;        Buff |= MISO;                 // capture current MISO bit
;        SCK = 0;                      // ..then set SCK low again
;       }
;    return(Buff);                     // return read uchar
;}
;
;void RF_Init_RX()                                                    //Function allow to Initialize RF device
;{
_RF_Init_RX:
; .FSTART _RF_Init_RX
;    CE=1;
	SBI  0x12,2
;    delay_us(700);
	__DELAY_USW 1400
;    CE=0;
	CBI  0x12,2
;    CSN=1;
	SBI  0x12,7
;}
	RET
; .FEND
;
;void RF_Write_RX(unsigned char Reg_Add, unsigned char Value)         //Function to write a value to a register address
;{
;    CSN=0;
;	Reg_Add -> Y+1
;	Value -> Y+0
;    SPI_RW_RX(0b00100000|Reg_Add);
;    SPI_RW_RX(Value);
;    CSN=1;
;    delay_us(10);
;}
;
;void RF_Write2_RX(unsigned char Reg_Add, unsigned char Value)         //Function to write a value to a register address
;{
;    CSN=0;
;	Reg_Add -> Y+1
;	Value -> Y+0
;    SPI_RW_RX(0b00100000|Reg_Add);
;    SPI_RW_RX(Value);
;    SPI_RW_RX(Value);
;    SPI_RW_RX(Value);
;    SPI_RW_RX(Value);
;    SPI_RW_RX(Value);
;    CSN=1;
;    delay_us(10);
;}
;
;void RF_Write3_RX(unsigned char Reg_Add, unsigned char Value)         //Function to write a value to a register address
;{
;    CSN=0;
;	Reg_Add -> Y+1
;	Value -> Y+0
;    SPI_RW_RX(0b00100000|Reg_Add);
;    SPI_RW_RX(Code_tay_cam2);
;    SPI_RW_RX(Code_tay_cam2);
;    SPI_RW_RX(Code_tay_cam2);
;    SPI_RW_RX(Code_tay_cam2);
;    SPI_RW_RX(Value);
;
;
;    CSN=1;
;    delay_us(10);
;}
;
;void RF_Command_RX(unsigned char command)                            //Function to write a command
;{
_RF_Command_RX:
; .FSTART _RF_Command_RX
;    CSN=0;
	ST   -Y,R26
;	command -> Y+0
	CBI  0x12,7
;    SPI_RW_RX(command);
	LD   R26,Y
	RCALL _SPI_RW_RX
;    CSN=1;
	SBI  0x12,7
;    delay_us(10);
	__DELAY_USB 27
;}
	JMP  _0x212000B
; .FEND
;
;void RF_Write_Address_RX(unsigned char Address1, unsigned char Address2, unsigned char Address3, unsigned char Address4) ...
;{
;    CSN=0;
;	Address1 -> Y+3
;	Address2 -> Y+2
;	Address3 -> Y+1
;	Address4 -> Y+0
;    RF_Write_RX(0x03,0b00000011);
;    CSN=1;
;    delay_us(10);
;    CSN=0;
;    RF_Write2_RX(0x0A, Address1);
;    RF_Write2_RX(0x10, Address1);
;
;    RF_Write3_RX(0x0B, Address2);
;    RF_Write3_RX(0x10, Address2);
;
;    RF_Write3_RX(0x0C, Address3);
;    RF_Write3_RX(0x10, Address3);
;
;    RF_Write3_RX(0x0D, Address4);
;    RF_Write3_RX(0x10, Address4);
;
;}
;
;void RF_Write_Address_RX_2(unsigned char Address1){
;    CSN=0;
;	Address1 -> Y+0
;    RF_Write_RX(0x03,0b00000011);
;    CSN=1;
;    delay_us(10);
;    CSN=0;
;
;    RF_Write2_RX(0x0A, Address1);
;    RF_Write2_RX(0x10, Address1);
;}
;
;
;void RF_Mode_RX()                                             //Function to put nRF in RX mode
;{
;    RF_Write_RX(0x00,0b00011111);     //CONFIG 0x00
;    CE=1;
;}
;
;void RF_Config_RX()                                                  //Function to config the nRF
;{
;RF_Write_RX(0x1C,0b00001111);
;RF_Write_Address_RX(Code_tay_cam1, Code_tay_cam2, Code_tay_cam3, Code_tay_cam4);
;RF_Write_RX(0x02,0b00001111);     //EX_RXADDR 0x02    enable data pipe 0;
;RF_Write_RX(0x01,0b00001111);     //EN_AA 0x01        enable auto-acknowledgment
;}
;
;void RF_Config_RX_2(){
;    RF_Write_RX(0x1C,0b00001111);
;    RF_Write_Address_RX_2(Code_tay_cam1);
;    RF_Write_RX(0x02,0b00000001);     //EX_RXADDR 0x02    enable data pipe 0;
;    RF_Write_RX(0x01,0b00000001);     //EN_AA 0x01        enable auto-acknowledgment
;}
;
;void RF_Config_RX_3(){
;RF_Write_RX(0x11,0b00000001);     //RX_PW_P0 0x11     Payload size
;RF_Write_Address_RX_2(Code_tay_cam1);
;RF_Write_RX(0x02,0b00000001);     //EX_RXADDR 0x02    enable data pipe 0;
;RF_Write_RX(0x01,0b00000001);     //EN_AA 0x01        enable auto-acknowledgment
;RF_Write_RX(0x04,0b00000000);     //SETUP_RETR 0x04   Setup retry time
;}
;
;void RF_Read_RX()                                         //Function to read the data from RX FIFO
;{
;   CE=0;
;   CSN=1;
;   delay_us(10);
;   CSN=0;
;   SPI_RW_RX(0b01100001);
;   delay_us(10);
;   data_receive.flag = SPI_Read_RX();
;   data_receive.a = SPI_Read_RX();
;   data_receive.b = SPI_Read_RX();
;   data_receive.c = SPI_Read_RX();
;   data_receive.d = SPI_Read_RX();
;   CSN=1;
;   CE=1;
;   RF_Write_RX(0x07,0b01111110);  // Clear flag
;   RF_Command_RX(0b11100010);     //Flush RX
;}
;
;void RF_Read_RX_2(){
;    CE=0;
;    CSN=1;
;    delay_us(10);
;    CSN=0;
;    SPI_RW_RX(0b01100001);
;    delay_us(10);
;    tay_cam_receive.analog_l = SPI_Read_RX();
;    tay_cam_receive.analog_r = SPI_Read_RX();
;    tay_cam_receive.digital_l = SPI_Read_RX();
;    tay_cam_receive.digital_r = SPI_Read_RX();
;    CSN=1;
;    CE=1;
;    RF_Write_RX(0x07,0b01111110);  // Clear flag
;    RF_Command_RX(0b11100010);     //Flush RX
;}
;
;void RF_Read_RX_3()                                         //Function to read the data from RX FIFO
;{
;   CE=0;
;   CSN=1;
;   delay_us(10);
;   CSN=0;
;   SPI_RW_RX(0b01100001);
;   delay_us(10);
;   station_receive.flag = SPI_Read_RX();
;   station_receive.light = SPI_Read_RX();
;   station_receive.humi = SPI_Read_RX();
;   station_receive.temp = SPI_Read_RX();
;   station_receive.sm = SPI_Read_RX();
;   CSN=1;
;   CE=1;
;   RF_Write_RX(0x07,0b01111110);  // Clear flag
;   RF_Command_RX(0b11100010);     //Flush RX
;}
;#include "s_function.c"
;void border()
; 0000 000C {
_border:
; .FSTART _border
;    glcd_line(48,0, 48, 15);
	LDI  R30,LOW(48)
	ST   -Y,R30
	LDI  R30,LOW(0)
	CALL SUBOPT_0x4
;    glcd_line(0, 15, 48, 15);
	LDI  R30,LOW(15)
	CALL SUBOPT_0x4
;    glcd_line(0,0,84,0);
	LDI  R30,LOW(0)
	ST   -Y,R30
	LDI  R30,LOW(84)
	ST   -Y,R30
	LDI  R26,LOW(0)
	CALL _glcd_line
;    glcd_line(84,0, 84, 48);
	LDI  R30,LOW(84)
	ST   -Y,R30
	LDI  R30,LOW(0)
	CALL SUBOPT_0x5
;    glcd_line(0, 48, 84, 48);
	LDI  R30,LOW(48)
	CALL SUBOPT_0x5
;    glcd_line(0, 0, 0, 48);
	LDI  R30,LOW(0)
	ST   -Y,R30
	ST   -Y,R30
	LDI  R26,LOW(48)
	CALL _glcd_line
;    glcd_moveto(3,3);
	LDI  R30,LOW(3)
	ST   -Y,R30
	LDI  R26,LOW(3)
	CALL _glcd_moveto
;    glcd_outtext("Node: ");
	__POINTW2MN _0xCE,0
	CALL _glcd_outtext
;    glcd_moveto(40, 3);
	LDI  R30,LOW(40)
	ST   -Y,R30
	LDI  R26,LOW(3)
	CALL _glcd_moveto
;    glcd_outtext("3");
	__POINTW2MN _0xCE,7
	CALL SUBOPT_0x6
;
;    glcd_moveto(4, 18);
	LDI  R26,LOW(18)
	CALL _glcd_moveto
;    glcd_outtext("Temp: ");
	__POINTW2MN _0xCE,9
	CALL SUBOPT_0x6
;    glcd_moveto(4, 28);
	LDI  R26,LOW(28)
	CALL _glcd_moveto
;    glcd_outtext("Humid: ");
	__POINTW2MN _0xCE,16
	CALL SUBOPT_0x6
;    glcd_moveto(4, 37);
	LDI  R26,LOW(37)
	CALL _glcd_moveto
;    glcd_outtext("Water: ");
	__POINTW2MN _0xCE,24
	CALL _glcd_outtext
;    glcd_moveto(68, 18);
	LDI  R30,LOW(68)
	ST   -Y,R30
	LDI  R26,LOW(18)
	CALL _glcd_moveto
;    glcd_outtext("!C");
	__POINTW2MN _0xCE,32
	CALL _glcd_outtext
;    glcd_moveto(69, 28);
	LDI  R30,LOW(69)
	ST   -Y,R30
	LDI  R26,LOW(28)
	CALL _glcd_moveto
;    glcd_putchar(37);
	LDI  R26,LOW(37)
	CALL _glcd_putchar
;    glcd_moveto(69, 37);
	LDI  R30,LOW(69)
	ST   -Y,R30
	LDI  R26,LOW(37)
	CALL _glcd_moveto
;    glcd_outtext("cm");
	__POINTW2MN _0xCE,35
	RJMP _0x212000C
;}
; .FEND

	.DSEG
_0xCE:
	.BYTE 0x26
;void temp()
;{

	.CSEG
_temp:
; .FSTART _temp
;     glcd_moveto(50, 28);
	LDI  R30,LOW(50)
	ST   -Y,R30
	LDI  R26,LOW(28)
	CALL _glcd_moveto
;     glcd_outtext("21");
	__POINTW2MN _0xCF,0
	CALL _glcd_outtext
;     glcd_moveto(50, 18);
	LDI  R30,LOW(50)
	ST   -Y,R30
	LDI  R26,LOW(18)
	CALL _glcd_moveto
;     glcd_outtext("75");
	__POINTW2MN _0xCF,3
	CALL _glcd_outtext
;     glcd_moveto(50, 37);
	LDI  R30,LOW(50)
	ST   -Y,R30
	LDI  R26,LOW(37)
	CALL _glcd_moveto
;     glcd_outtext("45");
	__POINTW2MN _0xCF,6
_0x212000C:
	CALL _glcd_outtext
;}
	RET
; .FEND

	.DSEG
_0xCF:
	.BYTE 0x9
;
;station_info data_send;
;void main(void)
; 0000 000F {

	.CSEG
_main:
; .FSTART _main
; 0000 0010 init();
	RCALL _init
; 0000 0011 border();
	RCALL _border
; 0000 0012 temp();
	RCALL _temp
; 0000 0013 config();
	RCALL _config
; 0000 0014 RF_Init_RX();
	RCALL _RF_Init_RX
; 0000 0015 RF_Config_TX();
	RCALL _RF_Config_TX
; 0000 0016 RF_Mode_TX();
	RCALL _RF_Mode_TX
; 0000 0017 while (1)
_0xD0:
; 0000 0018       {
; 0000 0019 
; 0000 001A             data_send.flag = 1;
	LDI  R30,LOW(1)
	LDI  R31,HIGH(1)
	STS  _data_send,R30
	STS  _data_send+1,R31
; 0000 001B             data_send.temp = 100;
	LDI  R30,LOW(100)
	LDI  R31,HIGH(100)
	__PUTW1MN _data_send,6
; 0000 001C             data_send.humi = 100;
	__PUTW1MN _data_send,4
; 0000 001D             data_send.light = 100;
	__PUTW1MN _data_send,2
; 0000 001E             data_send.sm = 100;
	__PUTW1MN _data_send,8
; 0000 001F             RF_Send_TX(data_send);
	LDI  R30,LOW(_data_send)
	LDI  R31,HIGH(_data_send)
	LDI  R26,10
	CALL __PUTPARL
	RCALL _RF_Send_TX
; 0000 0020             delay_ms(300);
	LDI  R26,LOW(300)
	LDI  R27,HIGH(300)
	CALL _delay_ms
; 0000 0021             IRQ=1;
	SBI  0x10,5
; 0000 0022             RF_Command_RX(0b11100010);
	LDI  R26,LOW(226)
	RCALL _RF_Command_RX
; 0000 0023 
; 0000 0024         }
	RJMP _0xD0
; 0000 0025 }
_0xD5:
	RJMP _0xD5
; .FEND

	.CSEG

	.DSEG

	.CSEG
	#ifndef __SLEEP_DEFINED__
	#define __SLEEP_DEFINED__
	.EQU __se_bit=0x80
	.EQU __sm_mask=0x70
	.EQU __sm_powerdown=0x20
	.EQU __sm_powersave=0x30
	.EQU __sm_standby=0x60
	.EQU __sm_ext_standby=0x70
	.EQU __sm_adc_noise_red=0x10
	.SET power_ctrl_reg=mcucr
	#endif

	.CSEG
	#ifndef __SLEEP_DEFINED__
	#define __SLEEP_DEFINED__
	.EQU __se_bit=0x80
	.EQU __sm_mask=0x70
	.EQU __sm_powerdown=0x20
	.EQU __sm_powersave=0x30
	.EQU __sm_standby=0x60
	.EQU __sm_ext_standby=0x70
	.EQU __sm_adc_noise_red=0x10
	.SET power_ctrl_reg=mcucr
	#endif

	.CSEG
_pcd8544_delay_G102:
; .FSTART _pcd8544_delay_G102
	RET
; .FEND
_pcd8544_wrbus_G102:
; .FSTART _pcd8544_wrbus_G102
	ST   -Y,R26
	ST   -Y,R17
	CBI  0x15,5
	LDI  R17,LOW(8)
_0x2040004:
	RCALL _pcd8544_delay_G102
	LDD  R30,Y+1
	ANDI R30,LOW(0x80)
	BREQ _0x2040006
	SBI  0x15,7
	RJMP _0x2040007
_0x2040006:
	CBI  0x15,7
_0x2040007:
	LDD  R30,Y+1
	LSL  R30
	STD  Y+1,R30
	RCALL _pcd8544_delay_G102
	SBI  0x1B,7
	RCALL _pcd8544_delay_G102
	CBI  0x1B,7
	SUBI R17,LOW(1)
	BRNE _0x2040004
	SBI  0x15,5
	LDD  R17,Y+0
	JMP  _0x2120003
; .FEND
_pcd8544_wrcmd:
; .FSTART _pcd8544_wrcmd
	ST   -Y,R26
	CBI  0x15,6
	LD   R26,Y
	RCALL _pcd8544_wrbus_G102
	RJMP _0x212000B
; .FEND
_pcd8544_wrdata_G102:
; .FSTART _pcd8544_wrdata_G102
	ST   -Y,R26
	SBI  0x15,6
	LD   R26,Y
	RCALL _pcd8544_wrbus_G102
	RJMP _0x212000B
; .FEND
_pcd8544_setaddr_G102:
; .FSTART _pcd8544_setaddr_G102
	ST   -Y,R26
	ST   -Y,R17
	LDD  R30,Y+1
	LSR  R30
	LSR  R30
	LSR  R30
	MOV  R17,R30
	LDI  R30,LOW(84)
	MUL  R30,R17
	MOVW R30,R0
	MOVW R26,R30
	LDD  R30,Y+2
	LDI  R31,0
	ADD  R30,R26
	ADC  R31,R27
	STS  _gfx_addr_G102,R30
	STS  _gfx_addr_G102+1,R31
	MOV  R30,R17
	LDD  R17,Y+0
	JMP  _0x2120002
; .FEND
_pcd8544_gotoxy:
; .FSTART _pcd8544_gotoxy
	ST   -Y,R26
	LDD  R30,Y+1
	ORI  R30,0x80
	MOV  R26,R30
	RCALL _pcd8544_wrcmd
	LDD  R30,Y+1
	ST   -Y,R30
	LDD  R26,Y+1
	RCALL _pcd8544_setaddr_G102
	ORI  R30,0x40
	MOV  R26,R30
	RCALL _pcd8544_wrcmd
	JMP  _0x2120003
; .FEND
_pcd8544_rdbyte:
; .FSTART _pcd8544_rdbyte
	ST   -Y,R26
	LDD  R30,Y+1
	ST   -Y,R30
	LDD  R26,Y+1
	RCALL _pcd8544_gotoxy
	LDS  R30,_gfx_addr_G102
	LDS  R31,_gfx_addr_G102+1
	SUBI R30,LOW(-_gfx_buffer_G102)
	SBCI R31,HIGH(-_gfx_buffer_G102)
	LD   R30,Z
	JMP  _0x2120003
; .FEND
_pcd8544_wrbyte:
; .FSTART _pcd8544_wrbyte
	ST   -Y,R26
	CALL SUBOPT_0x7
	LD   R26,Y
	STD  Z+0,R26
	RCALL _pcd8544_wrdata_G102
	RJMP _0x212000B
; .FEND
_glcd_init:
; .FSTART _glcd_init
	ST   -Y,R27
	ST   -Y,R26
	CALL __SAVELOCR4
	SBI  0x14,5
	SBI  0x15,5
	SBI  0x1A,7
	CBI  0x1B,7
	SBI  0x14,7
	SBI  0x14,6
	SBI  0x14,4
	CBI  0x15,4
	LDI  R26,LOW(10)
	LDI  R27,0
	CALL _delay_ms
	SBI  0x15,4
	LDD  R30,Y+4
	LDD  R31,Y+4+1
	SBIW R30,0
	BREQ _0x2040008
	LDD  R30,Z+6
	ANDI R30,LOW(0x3)
	MOV  R17,R30
	LDD  R30,Y+4
	LDD  R31,Y+4+1
	LDD  R30,Z+6
	LSR  R30
	LSR  R30
	ANDI R30,LOW(0x7)
	MOV  R16,R30
	LDD  R30,Y+4
	LDD  R31,Y+4+1
	LDD  R30,Z+7
	ANDI R30,0x7F
	MOV  R19,R30
	LDD  R26,Y+4
	LDD  R27,Y+4+1
	CALL __GETW1P
	__PUTW1MN _glcd_state,4
	ADIW R26,2
	CALL __GETW1P
	__PUTW1MN _glcd_state,25
	LDD  R26,Y+4
	LDD  R27,Y+4+1
	ADIW R26,4
	CALL __GETW1P
	RJMP _0x20400A0
_0x2040008:
	LDI  R17,LOW(0)
	LDI  R16,LOW(3)
	LDI  R19,LOW(50)
	LDI  R30,LOW(0)
	LDI  R31,HIGH(0)
	__PUTW1MN _glcd_state,4
	__PUTW1MN _glcd_state,25
_0x20400A0:
	__PUTW1MN _glcd_state,27
	LDI  R26,LOW(33)
	RCALL _pcd8544_wrcmd
	MOV  R30,R17
	ORI  R30,4
	MOV  R26,R30
	RCALL _pcd8544_wrcmd
	MOV  R30,R16
	ORI  R30,0x10
	MOV  R26,R30
	RCALL _pcd8544_wrcmd
	MOV  R30,R19
	ORI  R30,0x80
	MOV  R26,R30
	RCALL _pcd8544_wrcmd
	LDI  R26,LOW(32)
	RCALL _pcd8544_wrcmd
	LDI  R26,LOW(1)
	RCALL _glcd_display
	LDI  R30,LOW(1)
	STS  _glcd_state,R30
	LDI  R30,LOW(0)
	__PUTB1MN _glcd_state,1
	LDI  R30,LOW(1)
	__PUTB1MN _glcd_state,6
	__PUTB1MN _glcd_state,7
	__PUTB1MN _glcd_state,8
	LDI  R30,LOW(255)
	__PUTB1MN _glcd_state,9
	LDI  R30,LOW(1)
	__PUTB1MN _glcd_state,16
	__POINTW1MN _glcd_state,17
	ST   -Y,R31
	ST   -Y,R30
	LDI  R30,LOW(255)
	ST   -Y,R30
	LDI  R26,LOW(8)
	LDI  R27,0
	CALL _memset
	RCALL _glcd_clear
	LDI  R30,LOW(1)
	CALL __LOADLOCR4
	RJMP _0x212000A
; .FEND
_glcd_display:
; .FSTART _glcd_display
	ST   -Y,R26
	LD   R30,Y
	CPI  R30,0
	BREQ _0x204000A
	LDI  R30,LOW(12)
	RJMP _0x204000B
_0x204000A:
	LDI  R30,LOW(8)
_0x204000B:
	MOV  R26,R30
	RCALL _pcd8544_wrcmd
_0x212000B:
	ADIW R28,1
	RET
; .FEND
_glcd_clear:
; .FSTART _glcd_clear
	CALL __SAVELOCR4
	LDI  R19,0
	__GETB1MN _glcd_state,1
	CPI  R30,0
	BREQ _0x204000D
	LDI  R19,LOW(255)
_0x204000D:
	LDI  R30,LOW(0)
	ST   -Y,R30
	LDI  R26,LOW(0)
	RCALL _pcd8544_gotoxy
	__GETWRN 16,17,504
_0x204000E:
	MOVW R30,R16
	__SUBWRN 16,17,1
	SBIW R30,0
	BREQ _0x2040010
	MOV  R26,R19
	RCALL _pcd8544_wrbyte
	RJMP _0x204000E
_0x2040010:
	LDI  R30,LOW(0)
	ST   -Y,R30
	LDI  R26,LOW(0)
	RCALL _glcd_moveto
	CALL __LOADLOCR4
	JMP  _0x2120001
; .FEND
_glcd_putpixel:
; .FSTART _glcd_putpixel
	ST   -Y,R26
	ST   -Y,R17
	ST   -Y,R16
	LDD  R26,Y+4
	CPI  R26,LOW(0x54)
	BRSH _0x2040012
	LDD  R26,Y+3
	CPI  R26,LOW(0x30)
	BRLO _0x2040011
_0x2040012:
	LDD  R17,Y+1
	LDD  R16,Y+0
	JMP  _0x2120004
_0x2040011:
	LDD  R30,Y+4
	ST   -Y,R30
	LDD  R26,Y+4
	RCALL _pcd8544_rdbyte
	MOV  R17,R30
	LDD  R30,Y+3
	ANDI R30,LOW(0x7)
	LDI  R26,LOW(1)
	CALL __LSLB12
	MOV  R16,R30
	LDD  R30,Y+2
	CPI  R30,0
	BREQ _0x2040014
	OR   R17,R16
	RJMP _0x2040015
_0x2040014:
	MOV  R30,R16
	COM  R30
	AND  R17,R30
_0x2040015:
	MOV  R26,R17
	RCALL _pcd8544_wrbyte
	LDD  R17,Y+1
	LDD  R16,Y+0
	JMP  _0x2120004
; .FEND
_pcd8544_wrmasked_G102:
; .FSTART _pcd8544_wrmasked_G102
	ST   -Y,R26
	ST   -Y,R17
	LDD  R30,Y+5
	ST   -Y,R30
	LDD  R26,Y+5
	RCALL _pcd8544_rdbyte
	MOV  R17,R30
	LDD  R30,Y+1
	CPI  R30,LOW(0x7)
	BREQ _0x2040020
	CPI  R30,LOW(0x8)
	BRNE _0x2040021
_0x2040020:
	LDD  R30,Y+3
	ST   -Y,R30
	LDD  R26,Y+2
	CALL _glcd_mappixcolor1bit
	STD  Y+3,R30
	RJMP _0x2040022
_0x2040021:
	CPI  R30,LOW(0x3)
	BRNE _0x2040024
	LDD  R30,Y+3
	COM  R30
	STD  Y+3,R30
	RJMP _0x2040025
_0x2040024:
	CPI  R30,0
	BRNE _0x2040026
_0x2040025:
_0x2040022:
	LDD  R30,Y+2
	COM  R30
	AND  R17,R30
	RJMP _0x2040027
_0x2040026:
	CPI  R30,LOW(0x2)
	BRNE _0x2040028
_0x2040027:
	LDD  R30,Y+2
	LDD  R26,Y+3
	AND  R30,R26
	OR   R17,R30
	RJMP _0x204001E
_0x2040028:
	CPI  R30,LOW(0x1)
	BRNE _0x2040029
	LDD  R30,Y+2
	LDD  R26,Y+3
	AND  R30,R26
	EOR  R17,R30
	RJMP _0x204001E
_0x2040029:
	CPI  R30,LOW(0x4)
	BRNE _0x204001E
	LDD  R30,Y+2
	COM  R30
	LDD  R26,Y+3
	OR   R30,R26
	AND  R17,R30
_0x204001E:
	MOV  R26,R17
	RCALL _pcd8544_wrbyte
	LDD  R17,Y+0
_0x212000A:
	ADIW R28,6
	RET
; .FEND
_glcd_block:
; .FSTART _glcd_block
	ST   -Y,R26
	SBIW R28,3
	CALL __SAVELOCR6
	LDD  R26,Y+16
	CPI  R26,LOW(0x54)
	BRSH _0x204002C
	LDD  R26,Y+15
	CPI  R26,LOW(0x30)
	BRSH _0x204002C
	LDD  R26,Y+14
	CPI  R26,LOW(0x0)
	BREQ _0x204002C
	LDD  R26,Y+13
	CPI  R26,LOW(0x0)
	BRNE _0x204002B
_0x204002C:
	RJMP _0x2120009
_0x204002B:
	LDD  R30,Y+14
	STD  Y+8,R30
	LDD  R26,Y+16
	CLR  R27
	LDD  R30,Y+14
	LDI  R31,0
	ADD  R26,R30
	ADC  R27,R31
	CPI  R26,LOW(0x55)
	LDI  R30,HIGH(0x55)
	CPC  R27,R30
	BRLO _0x204002E
	LDD  R26,Y+16
	LDI  R30,LOW(84)
	SUB  R30,R26
	STD  Y+14,R30
_0x204002E:
	LDD  R18,Y+13
	LDD  R26,Y+15
	CLR  R27
	LDD  R30,Y+13
	LDI  R31,0
	ADD  R26,R30
	ADC  R27,R31
	SBIW R26,49
	BRLO _0x204002F
	LDD  R26,Y+15
	LDI  R30,LOW(48)
	SUB  R30,R26
	STD  Y+13,R30
_0x204002F:
	LDD  R26,Y+9
	CPI  R26,LOW(0x6)
	BREQ PC+2
	RJMP _0x2040030
	LDD  R30,Y+12
	CPI  R30,LOW(0x1)
	BRNE _0x2040034
	RJMP _0x2120009
_0x2040034:
	CPI  R30,LOW(0x3)
	BRNE _0x2040037
	__GETW1MN _glcd_state,27
	SBIW R30,0
	BRNE _0x2040036
	RJMP _0x2120009
_0x2040036:
_0x2040037:
	LDD  R16,Y+8
	LDD  R30,Y+13
	LSR  R30
	LSR  R30
	LSR  R30
	MOV  R19,R30
	MOV  R30,R18
	ANDI R30,LOW(0x7)
	BRNE _0x2040039
	LDD  R26,Y+13
	CP   R18,R26
	BREQ _0x2040038
_0x2040039:
	MOV  R26,R16
	CLR  R27
	MOV  R30,R19
	LDI  R31,0
	CALL __MULW12U
	LDD  R26,Y+10
	LDD  R27,Y+10+1
	CALL SUBOPT_0x8
	LSR  R18
	LSR  R18
	LSR  R18
	MOV  R21,R19
_0x204003B:
	PUSH R21
	SUBI R21,-1
	MOV  R30,R18
	POP  R26
	CP   R30,R26
	BRLO _0x204003D
	MOV  R17,R16
_0x204003E:
	MOV  R30,R17
	SUBI R17,1
	CPI  R30,0
	BREQ _0x2040040
	CALL SUBOPT_0x9
	RJMP _0x204003E
_0x2040040:
	RJMP _0x204003B
_0x204003D:
_0x2040038:
	LDD  R26,Y+14
	CP   R16,R26
	BREQ _0x2040041
	LDD  R30,Y+14
	LDD  R26,Y+10
	LDD  R27,Y+10+1
	LDI  R31,0
	CALL SUBOPT_0x8
	LDD  R30,Y+13
	ANDI R30,LOW(0x7)
	BREQ _0x2040042
	SUBI R19,-LOW(1)
_0x2040042:
	LDI  R18,LOW(0)
_0x2040043:
	PUSH R18
	SUBI R18,-1
	MOV  R30,R19
	POP  R26
	CP   R26,R30
	BRSH _0x2040045
	LDD  R17,Y+14
_0x2040046:
	PUSH R17
	SUBI R17,-1
	MOV  R30,R16
	POP  R26
	CP   R26,R30
	BRSH _0x2040048
	CALL SUBOPT_0x9
	RJMP _0x2040046
_0x2040048:
	LDD  R30,Y+14
	LDD  R26,Y+6
	LDD  R27,Y+6+1
	LDI  R31,0
	CALL SUBOPT_0x8
	RJMP _0x2040043
_0x2040045:
_0x2040041:
_0x2040030:
	LDD  R30,Y+15
	ANDI R30,LOW(0x7)
	MOV  R19,R30
_0x2040049:
	LDD  R30,Y+13
	CPI  R30,0
	BRNE PC+2
	RJMP _0x204004B
	LDD  R30,Y+10
	LDD  R31,Y+10+1
	STD  Y+6,R30
	STD  Y+6+1,R31
	LDI  R17,LOW(0)
	LDD  R16,Y+16
	CPI  R19,0
	BREQ PC+2
	RJMP _0x204004C
	LDD  R26,Y+13
	CPI  R26,LOW(0x8)
	BRSH PC+2
	RJMP _0x204004D
	LDD  R30,Y+9
	CPI  R30,0
	BREQ _0x2040052
	CPI  R30,LOW(0x3)
	BRNE _0x2040053
_0x2040052:
	RJMP _0x2040054
_0x2040053:
	CPI  R30,LOW(0x7)
	BRNE _0x2040055
_0x2040054:
	RJMP _0x2040056
_0x2040055:
	CPI  R30,LOW(0x8)
	BRNE _0x2040057
_0x2040056:
	RJMP _0x2040058
_0x2040057:
	CPI  R30,LOW(0x9)
	BRNE _0x2040059
_0x2040058:
	RJMP _0x204005A
_0x2040059:
	CPI  R30,LOW(0xA)
	BRNE _0x204005B
_0x204005A:
	ST   -Y,R16
	LDD  R26,Y+16
	RCALL _pcd8544_gotoxy
	RJMP _0x2040050
_0x204005B:
	CPI  R30,LOW(0x6)
	BRNE _0x2040050
	CALL SUBOPT_0xA
_0x2040050:
_0x204005D:
	PUSH R17
	SUBI R17,-1
	LDD  R30,Y+14
	POP  R26
	CP   R26,R30
	BRSH _0x204005F
	LDD  R26,Y+9
	CPI  R26,LOW(0x6)
	BRNE _0x2040060
	CALL SUBOPT_0xB
	ST   -Y,R31
	ST   -Y,R30
	CALL SUBOPT_0x7
	LD   R26,Z
	CALL _glcd_writemem
	RJMP _0x2040061
_0x2040060:
	LDD  R30,Y+9
	CPI  R30,LOW(0x9)
	BRNE _0x2040065
	LDI  R21,LOW(0)
	RJMP _0x2040066
_0x2040065:
	CPI  R30,LOW(0xA)
	BRNE _0x2040064
	LDI  R21,LOW(255)
	RJMP _0x2040066
_0x2040064:
	CALL SUBOPT_0xB
	CALL SUBOPT_0xC
	MOV  R21,R30
	LDD  R30,Y+9
	CPI  R30,LOW(0x7)
	BREQ _0x204006D
	CPI  R30,LOW(0x8)
	BRNE _0x204006E
_0x204006D:
_0x2040066:
	CALL SUBOPT_0xD
	MOV  R21,R30
	RJMP _0x204006F
_0x204006E:
	CPI  R30,LOW(0x3)
	BRNE _0x2040071
	COM  R21
	RJMP _0x2040072
_0x2040071:
	CPI  R30,0
	BRNE _0x2040074
_0x2040072:
_0x204006F:
	MOV  R26,R21
	RCALL _pcd8544_wrdata_G102
	RJMP _0x204006B
_0x2040074:
	CALL SUBOPT_0xE
	LDI  R30,LOW(255)
	ST   -Y,R30
	LDD  R26,Y+13
	RCALL _pcd8544_wrmasked_G102
_0x204006B:
_0x2040061:
	RJMP _0x204005D
_0x204005F:
	LDD  R30,Y+15
	SUBI R30,-LOW(8)
	STD  Y+15,R30
	LDD  R30,Y+13
	SUBI R30,LOW(8)
	STD  Y+13,R30
	RJMP _0x2040075
_0x204004D:
	LDD  R21,Y+13
	LDI  R18,LOW(0)
	LDI  R30,LOW(0)
	STD  Y+13,R30
	RJMP _0x2040076
_0x204004C:
	MOV  R30,R19
	LDD  R26,Y+13
	ADD  R26,R30
	CPI  R26,LOW(0x9)
	BRSH _0x2040077
	LDD  R18,Y+13
	LDI  R30,LOW(0)
	STD  Y+13,R30
	RJMP _0x2040078
_0x2040077:
	LDI  R30,LOW(8)
	SUB  R30,R19
	MOV  R18,R30
_0x2040078:
	ST   -Y,R19
	MOV  R26,R18
	CALL _glcd_getmask
	MOV  R20,R30
	LDD  R30,Y+9
	CPI  R30,LOW(0x6)
	BRNE _0x204007C
	CALL SUBOPT_0xA
_0x204007D:
	PUSH R17
	SUBI R17,-1
	LDD  R30,Y+14
	POP  R26
	CP   R26,R30
	BRSH _0x204007F
	CALL SUBOPT_0x7
	LD   R30,Z
	AND  R30,R20
	MOV  R26,R30
	MOV  R30,R19
	CALL __LSRB12
	CALL SUBOPT_0xF
	MOV  R30,R19
	MOV  R26,R20
	CALL __LSRB12
	COM  R30
	AND  R30,R1
	OR   R21,R30
	CALL SUBOPT_0xB
	ST   -Y,R31
	ST   -Y,R30
	MOV  R26,R21
	CALL _glcd_writemem
	RJMP _0x204007D
_0x204007F:
	RJMP _0x204007B
_0x204007C:
	CPI  R30,LOW(0x9)
	BRNE _0x2040080
	LDI  R21,LOW(0)
	RJMP _0x2040081
_0x2040080:
	CPI  R30,LOW(0xA)
	BRNE _0x2040087
	LDI  R21,LOW(255)
_0x2040081:
	CALL SUBOPT_0xD
	MOV  R26,R30
	MOV  R30,R19
	CALL __LSLB12
	MOV  R21,R30
_0x2040084:
	PUSH R17
	SUBI R17,-1
	LDD  R30,Y+14
	POP  R26
	CP   R26,R30
	BRSH _0x2040086
	CALL SUBOPT_0xE
	ST   -Y,R20
	LDI  R26,LOW(0)
	RCALL _pcd8544_wrmasked_G102
	RJMP _0x2040084
_0x2040086:
	RJMP _0x204007B
_0x2040087:
_0x2040088:
	PUSH R17
	SUBI R17,-1
	LDD  R30,Y+14
	POP  R26
	CP   R26,R30
	BRSH _0x204008A
	CALL SUBOPT_0x10
	MOV  R26,R30
	MOV  R30,R19
	CALL __LSLB12
	ST   -Y,R30
	ST   -Y,R20
	LDD  R26,Y+13
	RCALL _pcd8544_wrmasked_G102
	RJMP _0x2040088
_0x204008A:
_0x204007B:
	LDD  R30,Y+13
	CPI  R30,0
	BRNE _0x204008B
	RJMP _0x204004B
_0x204008B:
	LDD  R26,Y+13
	CPI  R26,LOW(0x8)
	BRSH _0x204008C
	LDD  R30,Y+13
	SUB  R30,R18
	MOV  R21,R30
	LDI  R30,LOW(0)
	RJMP _0x20400A1
_0x204008C:
	MOV  R21,R19
	LDD  R30,Y+13
	SUBI R30,LOW(8)
_0x20400A1:
	STD  Y+13,R30
	LDI  R17,LOW(0)
	LDD  R30,Y+15
	SUBI R30,-LOW(8)
	STD  Y+15,R30
	LDI  R30,LOW(8)
	SUB  R30,R19
	MOV  R18,R30
	LDD  R16,Y+16
	LDD  R30,Y+10
	LDD  R31,Y+10+1
	STD  Y+6,R30
	STD  Y+6+1,R31
_0x2040076:
	MOV  R30,R21
	LDI  R31,0
	SUBI R30,LOW(-__glcd_mask*2)
	SBCI R31,HIGH(-__glcd_mask*2)
	LPM  R20,Z
	LDD  R30,Y+9
	CPI  R30,LOW(0x6)
	BRNE _0x2040091
	CALL SUBOPT_0xA
_0x2040092:
	PUSH R17
	SUBI R17,-1
	LDD  R30,Y+14
	POP  R26
	CP   R26,R30
	BRSH _0x2040094
	CALL SUBOPT_0x7
	LD   R30,Z
	AND  R30,R20
	MOV  R26,R30
	MOV  R30,R18
	CALL __LSLB12
	CALL SUBOPT_0xF
	MOV  R30,R18
	MOV  R26,R20
	CALL __LSLB12
	COM  R30
	AND  R30,R1
	OR   R21,R30
	CALL SUBOPT_0xB
	ST   -Y,R31
	ST   -Y,R30
	MOV  R26,R21
	CALL _glcd_writemem
	RJMP _0x2040092
_0x2040094:
	RJMP _0x2040090
_0x2040091:
	CPI  R30,LOW(0x9)
	BRNE _0x2040095
	LDI  R21,LOW(0)
	RJMP _0x2040096
_0x2040095:
	CPI  R30,LOW(0xA)
	BRNE _0x204009C
	LDI  R21,LOW(255)
_0x2040096:
	CALL SUBOPT_0xD
	MOV  R26,R30
	MOV  R30,R18
	CALL __LSRB12
	MOV  R21,R30
_0x2040099:
	PUSH R17
	SUBI R17,-1
	LDD  R30,Y+14
	POP  R26
	CP   R26,R30
	BRSH _0x204009B
	CALL SUBOPT_0xE
	ST   -Y,R20
	LDI  R26,LOW(0)
	RCALL _pcd8544_wrmasked_G102
	RJMP _0x2040099
_0x204009B:
	RJMP _0x2040090
_0x204009C:
_0x204009D:
	PUSH R17
	SUBI R17,-1
	LDD  R30,Y+14
	POP  R26
	CP   R26,R30
	BRSH _0x204009F
	CALL SUBOPT_0x10
	MOV  R26,R30
	MOV  R30,R18
	CALL __LSRB12
	ST   -Y,R30
	ST   -Y,R20
	LDD  R26,Y+13
	RCALL _pcd8544_wrmasked_G102
	RJMP _0x204009D
_0x204009F:
_0x2040090:
_0x2040075:
	LDD  R30,Y+8
	LDD  R26,Y+10
	LDD  R27,Y+10+1
	LDI  R31,0
	ADD  R30,R26
	ADC  R31,R27
	STD  Y+10,R30
	STD  Y+10+1,R31
	RJMP _0x2040049
_0x204004B:
_0x2120009:
	CALL __LOADLOCR6
	ADIW R28,17
	RET
; .FEND

	.CSEG
_glcd_clipx:
; .FSTART _glcd_clipx
	CALL SUBOPT_0x11
	BRLT _0x2060003
	LDI  R30,LOW(0)
	LDI  R31,HIGH(0)
	JMP  _0x2120003
_0x2060003:
	LD   R26,Y
	LDD  R27,Y+1
	CPI  R26,LOW(0x54)
	LDI  R30,HIGH(0x54)
	CPC  R27,R30
	BRLT _0x2060004
	LDI  R30,LOW(83)
	LDI  R31,HIGH(83)
	JMP  _0x2120003
_0x2060004:
	LD   R30,Y
	LDD  R31,Y+1
	JMP  _0x2120003
; .FEND
_glcd_clipy:
; .FSTART _glcd_clipy
	CALL SUBOPT_0x11
	BRLT _0x2060005
	LDI  R30,LOW(0)
	LDI  R31,HIGH(0)
	JMP  _0x2120003
_0x2060005:
	LD   R26,Y
	LDD  R27,Y+1
	SBIW R26,48
	BRLT _0x2060006
	LDI  R30,LOW(47)
	LDI  R31,HIGH(47)
	JMP  _0x2120003
_0x2060006:
	LD   R30,Y
	LDD  R31,Y+1
	JMP  _0x2120003
; .FEND
_glcd_getcharw_G103:
; .FSTART _glcd_getcharw_G103
	ST   -Y,R27
	ST   -Y,R26
	SBIW R28,3
	CALL SUBOPT_0x12
	MOVW R16,R30
	MOV  R0,R16
	OR   R0,R17
	BRNE _0x206000B
	LDI  R30,LOW(0)
	LDI  R31,HIGH(0)
	RJMP _0x2120008
_0x206000B:
	CALL SUBOPT_0x13
	STD  Y+7,R0
	CALL SUBOPT_0x13
	STD  Y+6,R0
	CALL SUBOPT_0x13
	STD  Y+8,R0
	LDD  R30,Y+11
	LDD  R26,Y+8
	CP   R30,R26
	BRSH _0x206000C
	LDI  R30,LOW(0)
	LDI  R31,HIGH(0)
	RJMP _0x2120008
_0x206000C:
	MOVW R30,R16
	__ADDWRN 16,17,1
	LPM  R21,Z
	LDD  R26,Y+8
	CLR  R27
	CLR  R30
	ADD  R26,R21
	ADC  R27,R30
	LDD  R30,Y+11
	LDI  R31,0
	CP   R30,R26
	CPC  R31,R27
	BRLO _0x206000D
	LDI  R30,LOW(0)
	LDI  R31,HIGH(0)
	RJMP _0x2120008
_0x206000D:
	LDD  R30,Y+6
	LSR  R30
	LSR  R30
	LSR  R30
	MOV  R20,R30
	LDD  R30,Y+6
	ANDI R30,LOW(0x7)
	BREQ _0x206000E
	SUBI R20,-LOW(1)
_0x206000E:
	LDD  R30,Y+7
	CPI  R30,0
	BREQ _0x206000F
	LDD  R26,Y+9
	LDD  R27,Y+9+1
	ST   X,R30
	LDD  R26,Y+8
	LDD  R30,Y+11
	SUB  R30,R26
	LDI  R31,0
	MOVW R26,R30
	LDD  R30,Y+7
	LDI  R31,0
	CALL __MULW12U
	MOVW R26,R30
	MOV  R30,R20
	LDI  R31,0
	CALL __MULW12U
	ADD  R30,R16
	ADC  R31,R17
	RJMP _0x2120008
_0x206000F:
	MOVW R18,R16
	MOV  R30,R21
	LDI  R31,0
	__ADDWRR 16,17,30,31
_0x2060010:
	LDD  R26,Y+8
	SUBI R26,-LOW(1)
	STD  Y+8,R26
	SUBI R26,LOW(1)
	LDD  R30,Y+11
	CP   R26,R30
	BRSH _0x2060012
	MOVW R30,R18
	__ADDWRN 18,19,1
	LPM  R26,Z
	LDI  R27,0
	MOV  R30,R20
	LDI  R31,0
	CALL __MULW12U
	__ADDWRR 16,17,30,31
	RJMP _0x2060010
_0x2060012:
	MOVW R30,R18
	LPM  R30,Z
	LDD  R26,Y+9
	LDD  R27,Y+9+1
	ST   X,R30
	MOVW R30,R16
_0x2120008:
	CALL __LOADLOCR6
	ADIW R28,12
	RET
; .FEND
_glcd_new_line_G103:
; .FSTART _glcd_new_line_G103
	LDI  R30,LOW(0)
	__PUTB1MN _glcd_state,2
	__GETB2MN _glcd_state,3
	CLR  R27
	CALL SUBOPT_0x14
	LDI  R31,0
	ADD  R26,R30
	ADC  R27,R31
	__GETB1MN _glcd_state,7
	LDI  R31,0
	ADD  R26,R30
	ADC  R27,R31
	RCALL _glcd_clipy
	__PUTB1MN _glcd_state,3
	RET
; .FEND
_glcd_putchar:
; .FSTART _glcd_putchar
	ST   -Y,R26
	SBIW R28,1
	CALL SUBOPT_0x12
	SBIW R30,0
	BRNE PC+2
	RJMP _0x206001F
	LDD  R26,Y+7
	CPI  R26,LOW(0xA)
	BRNE _0x2060020
	RJMP _0x2060021
_0x2060020:
	LDD  R30,Y+7
	ST   -Y,R30
	MOVW R26,R28
	ADIW R26,7
	RCALL _glcd_getcharw_G103
	MOVW R20,R30
	SBIW R30,0
	BRNE _0x2060022
	RJMP _0x2120006
_0x2060022:
	__GETB1MN _glcd_state,6
	LDD  R26,Y+6
	ADD  R30,R26
	MOV  R19,R30
	__GETB2MN _glcd_state,2
	CLR  R27
	LDI  R31,0
	ADD  R30,R26
	ADC  R31,R27
	MOVW R16,R30
	__CPWRN 16,17,85
	BRLO _0x2060023
	MOV  R16,R19
	CLR  R17
	RCALL _glcd_new_line_G103
_0x2060023:
	__GETB1MN _glcd_state,2
	ST   -Y,R30
	__GETB1MN _glcd_state,3
	ST   -Y,R30
	LDD  R30,Y+8
	ST   -Y,R30
	CALL SUBOPT_0x14
	ST   -Y,R30
	LDI  R30,LOW(1)
	ST   -Y,R30
	ST   -Y,R21
	ST   -Y,R20
	LDI  R26,LOW(7)
	RCALL _glcd_block
	__GETB1MN _glcd_state,2
	LDD  R26,Y+6
	ADD  R30,R26
	ST   -Y,R30
	__GETB1MN _glcd_state,3
	ST   -Y,R30
	__GETB1MN _glcd_state,6
	ST   -Y,R30
	CALL SUBOPT_0x14
	CALL SUBOPT_0x15
	__GETB1MN _glcd_state,2
	ST   -Y,R30
	__GETB2MN _glcd_state,3
	CALL SUBOPT_0x14
	ADD  R30,R26
	ST   -Y,R30
	ST   -Y,R19
	__GETB1MN _glcd_state,7
	CALL SUBOPT_0x15
	LDI  R30,LOW(84)
	LDI  R31,HIGH(84)
	CP   R30,R16
	CPC  R31,R17
	BRNE _0x2060024
_0x2060021:
	RCALL _glcd_new_line_G103
	RJMP _0x2120006
_0x2060024:
_0x206001F:
	__PUTBMRN _glcd_state,2,16
_0x2120006:
	CALL __LOADLOCR6
_0x2120007:
	ADIW R28,8
	RET
; .FEND
_glcd_outtext:
; .FSTART _glcd_outtext
	ST   -Y,R27
	ST   -Y,R26
	ST   -Y,R17
_0x206002E:
	LDD  R26,Y+1
	LDD  R27,Y+1+1
	LD   R30,X+
	STD  Y+1,R26
	STD  Y+1+1,R27
	MOV  R17,R30
	CPI  R30,0
	BREQ _0x2060030
	MOV  R26,R17
	RCALL _glcd_putchar
	RJMP _0x206002E
_0x2060030:
	LDD  R17,Y+0
	RJMP _0x2120002
; .FEND
_glcd_putpixelm_G103:
; .FSTART _glcd_putpixelm_G103
	ST   -Y,R26
	LDD  R30,Y+2
	ST   -Y,R30
	LDD  R30,Y+2
	ST   -Y,R30
	__GETB1MN _glcd_state,9
	LDD  R26,Y+2
	AND  R30,R26
	BREQ _0x206003E
	LDS  R30,_glcd_state
	RJMP _0x206003F
_0x206003E:
	__GETB1MN _glcd_state,1
_0x206003F:
	MOV  R26,R30
	RCALL _glcd_putpixel
	LD   R30,Y
	LSL  R30
	ST   Y,R30
	CPI  R30,0
	BRNE _0x2060041
	LDI  R30,LOW(1)
	ST   Y,R30
_0x2060041:
	LD   R30,Y
	RJMP _0x2120002
; .FEND
_glcd_moveto:
; .FSTART _glcd_moveto
	ST   -Y,R26
	LDD  R26,Y+1
	CLR  R27
	RCALL _glcd_clipx
	__PUTB1MN _glcd_state,2
	LD   R26,Y
	CLR  R27
	RCALL _glcd_clipy
	__PUTB1MN _glcd_state,3
	RJMP _0x2120003
; .FEND
_glcd_line:
; .FSTART _glcd_line
	ST   -Y,R26
	SBIW R28,11
	CALL __SAVELOCR6
	LDD  R26,Y+20
	CLR  R27
	RCALL _glcd_clipx
	STD  Y+20,R30
	LDD  R26,Y+18
	CLR  R27
	RCALL _glcd_clipx
	STD  Y+18,R30
	LDD  R26,Y+19
	CLR  R27
	RCALL _glcd_clipy
	STD  Y+19,R30
	LDD  R26,Y+17
	CLR  R27
	RCALL _glcd_clipy
	STD  Y+17,R30
	LDD  R30,Y+18
	__PUTB1MN _glcd_state,2
	LDD  R30,Y+17
	__PUTB1MN _glcd_state,3
	LDI  R30,LOW(1)
	STD  Y+8,R30
	LDD  R30,Y+17
	LDD  R26,Y+19
	CP   R30,R26
	BRNE _0x2060042
	LDD  R17,Y+20
	LDD  R26,Y+18
	CP   R17,R26
	BRNE _0x2060043
	ST   -Y,R17
	LDD  R30,Y+20
	ST   -Y,R30
	LDI  R26,LOW(1)
	RCALL _glcd_putpixelm_G103
	RJMP _0x2120005
_0x2060043:
	LDD  R26,Y+18
	CP   R17,R26
	BRSH _0x2060044
	LDD  R30,Y+18
	SUB  R30,R17
	MOV  R16,R30
	__GETWRN 20,21,1
	RJMP _0x2060045
_0x2060044:
	LDD  R26,Y+18
	MOV  R30,R17
	SUB  R30,R26
	MOV  R16,R30
	__GETWRN 20,21,-1
_0x2060045:
_0x2060047:
	LDD  R19,Y+19
	LDI  R30,LOW(0)
	STD  Y+6,R30
_0x2060049:
	CALL SUBOPT_0x16
	BRSH _0x206004B
	ST   -Y,R17
	ST   -Y,R19
	INC  R19
	LDD  R26,Y+10
	RCALL _glcd_putpixelm_G103
	STD  Y+7,R30
	RJMP _0x2060049
_0x206004B:
	LDD  R30,Y+7
	STD  Y+8,R30
	ADD  R17,R20
	MOV  R30,R16
	SUBI R16,1
	CPI  R30,0
	BRNE _0x2060047
	RJMP _0x206004C
_0x2060042:
	LDD  R30,Y+18
	LDD  R26,Y+20
	CP   R30,R26
	BRNE _0x206004D
	LDD  R19,Y+19
	LDD  R26,Y+17
	CP   R19,R26
	BRSH _0x206004E
	LDD  R30,Y+17
	SUB  R30,R19
	MOV  R18,R30
	LDI  R30,LOW(1)
	LDI  R31,HIGH(1)
	RJMP _0x206011B
_0x206004E:
	LDD  R26,Y+17
	MOV  R30,R19
	SUB  R30,R26
	MOV  R18,R30
	LDI  R30,LOW(65535)
	LDI  R31,HIGH(65535)
_0x206011B:
	STD  Y+13,R30
	STD  Y+13+1,R31
_0x2060051:
	LDD  R17,Y+20
	LDI  R30,LOW(0)
	STD  Y+6,R30
_0x2060053:
	CALL SUBOPT_0x16
	BRSH _0x2060055
	ST   -Y,R17
	INC  R17
	CALL SUBOPT_0x17
	STD  Y+7,R30
	RJMP _0x2060053
_0x2060055:
	LDD  R30,Y+7
	STD  Y+8,R30
	LDD  R30,Y+13
	ADD  R19,R30
	MOV  R30,R18
	SUBI R18,1
	CPI  R30,0
	BRNE _0x2060051
	RJMP _0x2060056
_0x206004D:
	LDI  R30,LOW(0)
	STD  Y+6,R30
_0x2060057:
	CALL SUBOPT_0x16
	BRLO PC+2
	RJMP _0x2060059
	LDD  R17,Y+20
	LDD  R19,Y+19
	LDI  R30,LOW(1)
	MOV  R18,R30
	MOV  R16,R30
	LDD  R26,Y+18
	CLR  R27
	LDD  R30,Y+20
	LDI  R31,0
	SUB  R26,R30
	SBC  R27,R31
	MOVW R20,R26
	TST  R21
	BRPL _0x206005A
	LDI  R16,LOW(255)
	MOVW R30,R20
	CALL __ANEGW1
	MOVW R20,R30
_0x206005A:
	MOVW R30,R20
	LSL  R30
	ROL  R31
	STD  Y+15,R30
	STD  Y+15+1,R31
	LDD  R26,Y+17
	CLR  R27
	LDD  R30,Y+19
	LDI  R31,0
	SUB  R26,R30
	SBC  R27,R31
	STD  Y+13,R26
	STD  Y+13+1,R27
	LDD  R26,Y+14
	TST  R26
	BRPL _0x206005B
	LDI  R18,LOW(255)
	LDD  R30,Y+13
	LDD  R31,Y+13+1
	CALL __ANEGW1
	STD  Y+13,R30
	STD  Y+13+1,R31
_0x206005B:
	LDD  R30,Y+13
	LDD  R31,Y+13+1
	LSL  R30
	ROL  R31
	STD  Y+11,R30
	STD  Y+11+1,R31
	ST   -Y,R17
	ST   -Y,R19
	LDI  R26,LOW(1)
	RCALL _glcd_putpixelm_G103
	STD  Y+8,R30
	LDI  R30,LOW(0)
	STD  Y+9,R30
	STD  Y+9+1,R30
	LDD  R26,Y+13
	LDD  R27,Y+13+1
	CP   R20,R26
	CPC  R21,R27
	BRLT _0x206005C
_0x206005E:
	ADD  R17,R16
	LDD  R30,Y+11
	LDD  R31,Y+11+1
	CALL SUBOPT_0x18
	LDD  R26,Y+9
	LDD  R27,Y+9+1
	CP   R20,R26
	CPC  R21,R27
	BRGE _0x2060060
	ADD  R19,R18
	LDD  R26,Y+15
	LDD  R27,Y+15+1
	CALL SUBOPT_0x19
_0x2060060:
	ST   -Y,R17
	CALL SUBOPT_0x17
	STD  Y+8,R30
	LDD  R30,Y+18
	CP   R30,R17
	BRNE _0x206005E
	RJMP _0x2060061
_0x206005C:
_0x2060063:
	ADD  R19,R18
	LDD  R30,Y+15
	LDD  R31,Y+15+1
	CALL SUBOPT_0x18
	LDD  R30,Y+13
	LDD  R31,Y+13+1
	LDD  R26,Y+9
	LDD  R27,Y+9+1
	CP   R30,R26
	CPC  R31,R27
	BRGE _0x2060065
	ADD  R17,R16
	LDD  R26,Y+11
	LDD  R27,Y+11+1
	CALL SUBOPT_0x19
_0x2060065:
	ST   -Y,R17
	CALL SUBOPT_0x17
	STD  Y+8,R30
	LDD  R30,Y+17
	CP   R30,R19
	BRNE _0x2060063
_0x2060061:
	LDD  R30,Y+19
	SUBI R30,-LOW(1)
	STD  Y+19,R30
	LDD  R30,Y+17
	SUBI R30,-LOW(1)
	STD  Y+17,R30
	RJMP _0x2060057
_0x2060059:
_0x2060056:
_0x206004C:
_0x2120005:
	CALL __LOADLOCR6
	ADIW R28,21
	RET
; .FEND

	.CSEG

	.CSEG

	.CSEG
_memset:
; .FSTART _memset
	ST   -Y,R27
	ST   -Y,R26
    ldd  r27,y+1
    ld   r26,y
    adiw r26,0
    breq memset1
    ldd  r31,y+4
    ldd  r30,y+3
    ldd  r22,y+2
memset0:
    st   z+,r22
    sbiw r26,1
    brne memset0
memset1:
    ldd  r30,y+3
    ldd  r31,y+4
_0x2120004:
	ADIW R28,5
	RET
; .FEND

	.CSEG
_glcd_getmask:
; .FSTART _glcd_getmask
	ST   -Y,R26
	LD   R30,Y
	LDI  R31,0
	SUBI R30,LOW(-__glcd_mask*2)
	SBCI R31,HIGH(-__glcd_mask*2)
	LPM  R26,Z
	LDD  R30,Y+1
	CALL __LSLB12
_0x2120003:
	ADIW R28,2
	RET
; .FEND
_glcd_mappixcolor1bit:
; .FSTART _glcd_mappixcolor1bit
	ST   -Y,R26
	ST   -Y,R17
	LDD  R30,Y+1
	CPI  R30,LOW(0x7)
	BREQ _0x2100007
	CPI  R30,LOW(0xA)
	BRNE _0x2100008
_0x2100007:
	LDS  R17,_glcd_state
	RJMP _0x2100009
_0x2100008:
	CPI  R30,LOW(0x9)
	BRNE _0x210000B
	__GETBRMN 17,_glcd_state,1
	RJMP _0x2100009
_0x210000B:
	CPI  R30,LOW(0x8)
	BRNE _0x2100005
	__GETBRMN 17,_glcd_state,16
_0x2100009:
	__GETB1MN _glcd_state,1
	CPI  R30,0
	BREQ _0x210000E
	CPI  R17,0
	BREQ _0x210000F
	LDI  R30,LOW(255)
	LDD  R17,Y+0
	RJMP _0x2120002
_0x210000F:
	LDD  R30,Y+2
	COM  R30
	LDD  R17,Y+0
	RJMP _0x2120002
_0x210000E:
	CPI  R17,0
	BRNE _0x2100011
	LDI  R30,LOW(0)
	LDD  R17,Y+0
	RJMP _0x2120002
_0x2100011:
_0x2100005:
	LDD  R30,Y+2
	LDD  R17,Y+0
	RJMP _0x2120002
; .FEND
_glcd_readmem:
; .FSTART _glcd_readmem
	ST   -Y,R27
	ST   -Y,R26
	LDD  R30,Y+2
	CPI  R30,LOW(0x1)
	BRNE _0x2100015
	LD   R30,Y
	LDD  R31,Y+1
	LPM  R30,Z
	RJMP _0x2120002
_0x2100015:
	CPI  R30,LOW(0x2)
	BRNE _0x2100016
	LD   R26,Y
	LDD  R27,Y+1
	CALL __EEPROMRDB
	RJMP _0x2120002
_0x2100016:
	CPI  R30,LOW(0x3)
	BRNE _0x2100018
	LD   R26,Y
	LDD  R27,Y+1
	__CALL1MN _glcd_state,25
	RJMP _0x2120002
_0x2100018:
	LD   R26,Y
	LDD  R27,Y+1
	LD   R30,X
_0x2120002:
	ADIW R28,3
	RET
; .FEND
_glcd_writemem:
; .FSTART _glcd_writemem
	ST   -Y,R26
	LDD  R30,Y+3
	CPI  R30,0
	BRNE _0x210001C
	LD   R30,Y
	LDD  R26,Y+1
	LDD  R27,Y+1+1
	ST   X,R30
	RJMP _0x210001B
_0x210001C:
	CPI  R30,LOW(0x2)
	BRNE _0x210001D
	LD   R30,Y
	LDD  R26,Y+1
	LDD  R27,Y+1+1
	CALL __EEPROMWRB
	RJMP _0x210001B
_0x210001D:
	CPI  R30,LOW(0x3)
	BRNE _0x210001B
	LDD  R30,Y+1
	LDD  R31,Y+1+1
	ST   -Y,R31
	ST   -Y,R30
	LDD  R26,Y+2
	__CALL1MN _glcd_state,27
_0x210001B:
_0x2120001:
	ADIW R28,4
	RET
; .FEND

	.DSEG
_glcd_state:
	.BYTE 0x1D
_station_receive:
	.BYTE 0xA
_tay_cam_receive:
	.BYTE 0x8
_data_receive:
	.BYTE 0x12
_data_send:
	.BYTE 0xA
__seed_G100:
	.BYTE 0x4
_gfx_addr_G102:
	.BYTE 0x2
_gfx_buffer_G102:
	.BYTE 0x1F8

	.CSEG
;OPTIMIZER ADDED SUBROUTINE, CALLED 2 TIMES, CODE SIZE REDUCTION:12 WORDS
SUBOPT_0x0:
	__DELAY_USB 13
	LDD  R30,Y+1
	LSL  R30
	STD  Y+1,R30
	SBI  0x12,3
	__DELAY_USB 13
	LDI  R30,0
	SBIC 0x10,4
	LDI  R30,1
	LDD  R26,Y+1
	OR   R30,R26
	STD  Y+1,R30
	CBI  0x12,3
	RET

;OPTIMIZER ADDED SUBROUTINE, CALLED 4 TIMES, CODE SIZE REDUCTION:12 WORDS
SUBOPT_0x1:
	LD   R26,Y
	CALL _SPI_RW_TX
	SBI  0x12,7
	__DELAY_USB 27
	RET

;OPTIMIZER ADDED SUBROUTINE, CALLED 3 TIMES, CODE SIZE REDUCTION:3 WORDS
SUBOPT_0x2:
	SBI  0x12,7
	__DELAY_USB 27
	CBI  0x12,7
	RET

;OPTIMIZER ADDED SUBROUTINE, CALLED 5 TIMES, CODE SIZE REDUCTION:9 WORDS
SUBOPT_0x3:
	CALL _SPI_RW_TX
	LD   R26,Y
	JMP  _SPI_RW_TX

;OPTIMIZER ADDED SUBROUTINE, CALLED 2 TIMES, CODE SIZE REDUCTION:3 WORDS
SUBOPT_0x4:
	ST   -Y,R30
	LDI  R30,LOW(48)
	ST   -Y,R30
	LDI  R26,LOW(15)
	CALL _glcd_line
	LDI  R30,LOW(0)
	ST   -Y,R30
	RET

;OPTIMIZER ADDED SUBROUTINE, CALLED 2 TIMES, CODE SIZE REDUCTION:3 WORDS
SUBOPT_0x5:
	ST   -Y,R30
	LDI  R30,LOW(84)
	ST   -Y,R30
	LDI  R26,LOW(48)
	CALL _glcd_line
	LDI  R30,LOW(0)
	ST   -Y,R30
	RET

;OPTIMIZER ADDED SUBROUTINE, CALLED 3 TIMES, CODE SIZE REDUCTION:1 WORDS
SUBOPT_0x6:
	CALL _glcd_outtext
	LDI  R30,LOW(4)
	ST   -Y,R30
	RET

;OPTIMIZER ADDED SUBROUTINE, CALLED 4 TIMES, CODE SIZE REDUCTION:21 WORDS
SUBOPT_0x7:
	LDI  R26,LOW(_gfx_addr_G102)
	LDI  R27,HIGH(_gfx_addr_G102)
	LD   R30,X+
	LD   R31,X+
	ADIW R30,1
	ST   -X,R31
	ST   -X,R30
	SBIW R30,1
	SUBI R30,LOW(-_gfx_buffer_G102)
	SBCI R31,HIGH(-_gfx_buffer_G102)
	RET

;OPTIMIZER ADDED SUBROUTINE, CALLED 3 TIMES, CODE SIZE REDUCTION:1 WORDS
SUBOPT_0x8:
	ADD  R30,R26
	ADC  R31,R27
	STD  Y+6,R30
	STD  Y+6+1,R31
	RET

;OPTIMIZER ADDED SUBROUTINE, CALLED 2 TIMES, CODE SIZE REDUCTION:8 WORDS
SUBOPT_0x9:
	LDD  R30,Y+12
	ST   -Y,R30
	LDD  R30,Y+7
	LDD  R31,Y+7+1
	ADIW R30,1
	STD  Y+7,R30
	STD  Y+7+1,R31
	SBIW R30,1
	ST   -Y,R31
	ST   -Y,R30
	LDI  R26,LOW(0)
	JMP  _glcd_writemem

;OPTIMIZER ADDED SUBROUTINE, CALLED 3 TIMES, CODE SIZE REDUCTION:1 WORDS
SUBOPT_0xA:
	ST   -Y,R16
	LDD  R26,Y+16
	JMP  _pcd8544_setaddr_G102

;OPTIMIZER ADDED SUBROUTINE, CALLED 4 TIMES, CODE SIZE REDUCTION:15 WORDS
SUBOPT_0xB:
	LDD  R30,Y+12
	ST   -Y,R30
	LDD  R30,Y+7
	LDD  R31,Y+7+1
	ADIW R30,1
	STD  Y+7,R30
	STD  Y+7+1,R31
	SBIW R30,1
	RET

;OPTIMIZER ADDED SUBROUTINE, CALLED 3 TIMES, CODE SIZE REDUCTION:5 WORDS
SUBOPT_0xC:
	CLR  R22
	CLR  R23
	MOVW R26,R30
	MOVW R24,R22
	JMP  _glcd_readmem

;OPTIMIZER ADDED SUBROUTINE, CALLED 3 TIMES, CODE SIZE REDUCTION:1 WORDS
SUBOPT_0xD:
	ST   -Y,R21
	LDD  R26,Y+10
	JMP  _glcd_mappixcolor1bit

;OPTIMIZER ADDED SUBROUTINE, CALLED 3 TIMES, CODE SIZE REDUCTION:3 WORDS
SUBOPT_0xE:
	ST   -Y,R16
	INC  R16
	LDD  R30,Y+16
	ST   -Y,R30
	ST   -Y,R21
	RET

;OPTIMIZER ADDED SUBROUTINE, CALLED 2 TIMES, CODE SIZE REDUCTION:5 WORDS
SUBOPT_0xF:
	MOV  R21,R30
	LDD  R30,Y+12
	ST   -Y,R30
	LDD  R26,Y+7
	LDD  R27,Y+7+1
	CLR  R24
	CLR  R25
	CALL _glcd_readmem
	MOV  R1,R30
	RET

;OPTIMIZER ADDED SUBROUTINE, CALLED 2 TIMES, CODE SIZE REDUCTION:9 WORDS
SUBOPT_0x10:
	ST   -Y,R16
	INC  R16
	LDD  R30,Y+16
	ST   -Y,R30
	LDD  R30,Y+14
	ST   -Y,R30
	LDD  R30,Y+9
	LDD  R31,Y+9+1
	ADIW R30,1
	STD  Y+9,R30
	STD  Y+9+1,R31
	SBIW R30,1
	RJMP SUBOPT_0xC

;OPTIMIZER ADDED SUBROUTINE, CALLED 2 TIMES, CODE SIZE REDUCTION:1 WORDS
SUBOPT_0x11:
	ST   -Y,R27
	ST   -Y,R26
	LD   R26,Y
	LDD  R27,Y+1
	CALL __CPW02
	RET

;OPTIMIZER ADDED SUBROUTINE, CALLED 2 TIMES, CODE SIZE REDUCTION:1 WORDS
SUBOPT_0x12:
	CALL __SAVELOCR6
	__GETW1MN _glcd_state,4
	RET

;OPTIMIZER ADDED SUBROUTINE, CALLED 3 TIMES, CODE SIZE REDUCTION:1 WORDS
SUBOPT_0x13:
	MOVW R30,R16
	__ADDWRN 16,17,1
	LPM  R0,Z
	RET

;OPTIMIZER ADDED SUBROUTINE, CALLED 4 TIMES, CODE SIZE REDUCTION:9 WORDS
SUBOPT_0x14:
	__GETW1MN _glcd_state,4
	ADIW R30,1
	LPM  R30,Z
	RET

;OPTIMIZER ADDED SUBROUTINE, CALLED 2 TIMES, CODE SIZE REDUCTION:5 WORDS
SUBOPT_0x15:
	ST   -Y,R30
	LDI  R30,LOW(0)
	ST   -Y,R30
	LDI  R30,LOW(0)
	LDI  R31,HIGH(0)
	ST   -Y,R31
	ST   -Y,R30
	LDI  R26,LOW(9)
	JMP  _glcd_block

;OPTIMIZER ADDED SUBROUTINE, CALLED 3 TIMES, CODE SIZE REDUCTION:7 WORDS
SUBOPT_0x16:
	LDD  R26,Y+6
	SUBI R26,-LOW(1)
	STD  Y+6,R26
	SUBI R26,LOW(1)
	__GETB1MN _glcd_state,8
	CP   R26,R30
	RET

;OPTIMIZER ADDED SUBROUTINE, CALLED 3 TIMES, CODE SIZE REDUCTION:1 WORDS
SUBOPT_0x17:
	ST   -Y,R19
	LDD  R26,Y+10
	JMP  _glcd_putpixelm_G103

;OPTIMIZER ADDED SUBROUTINE, CALLED 2 TIMES, CODE SIZE REDUCTION:1 WORDS
SUBOPT_0x18:
	LDD  R26,Y+9
	LDD  R27,Y+9+1
	ADD  R30,R26
	ADC  R31,R27
	STD  Y+9,R30
	STD  Y+9+1,R31
	RET

;OPTIMIZER ADDED SUBROUTINE, CALLED 2 TIMES, CODE SIZE REDUCTION:1 WORDS
SUBOPT_0x19:
	LDD  R30,Y+9
	LDD  R31,Y+9+1
	SUB  R30,R26
	SBC  R31,R27
	STD  Y+9,R30
	STD  Y+9+1,R31
	RET


	.CSEG
_delay_ms:
	adiw r26,0
	breq __delay_ms1
__delay_ms0:
	__DELAY_USW 0x7D0
	wdr
	sbiw r26,1
	brne __delay_ms0
__delay_ms1:
	ret

__ANEGW1:
	NEG  R31
	NEG  R30
	SBCI R31,0
	RET

__LSLB12:
	TST  R30
	MOV  R0,R30
	MOV  R30,R26
	BREQ __LSLB12R
__LSLB12L:
	LSL  R30
	DEC  R0
	BRNE __LSLB12L
__LSLB12R:
	RET

__LSRB12:
	TST  R30
	MOV  R0,R30
	MOV  R30,R26
	BREQ __LSRB12R
__LSRB12L:
	LSR  R30
	DEC  R0
	BRNE __LSRB12L
__LSRB12R:
	RET

__MULW12U:
	MUL  R31,R26
	MOV  R31,R0
	MUL  R30,R27
	ADD  R31,R0
	MUL  R30,R26
	MOV  R30,R0
	ADD  R31,R1
	RET

__GETW1P:
	LD   R30,X+
	LD   R31,X
	SBIW R26,1
	RET

__PUTPARL:
	CLR  R27
__PUTPAR:
	ADD  R30,R26
	ADC  R31,R27
__PUTPAR0:
	LD   R0,-Z
	ST   -Y,R0
	SBIW R26,1
	BRNE __PUTPAR0
	RET

__EEPROMRDB:
	SBIC EECR,EEWE
	RJMP __EEPROMRDB
	PUSH R31
	IN   R31,SREG
	CLI
	OUT  EEARL,R26
	OUT  EEARH,R27
	SBI  EECR,EERE
	IN   R30,EEDR
	OUT  SREG,R31
	POP  R31
	RET

__EEPROMWRB:
	SBIS EECR,EEWE
	RJMP __EEPROMWRB1
	WDR
	RJMP __EEPROMWRB
__EEPROMWRB1:
	IN   R25,SREG
	CLI
	OUT  EEARL,R26
	OUT  EEARH,R27
	SBI  EECR,EERE
	IN   R24,EEDR
	CP   R30,R24
	BREQ __EEPROMWRB0
	OUT  EEDR,R30
	SBI  EECR,EEMWE
	SBI  EECR,EEWE
__EEPROMWRB0:
	OUT  SREG,R25
	RET

__CPW02:
	CLR  R0
	CP   R0,R26
	CPC  R0,R27
	RET

__SAVELOCR6:
	ST   -Y,R21
__SAVELOCR5:
	ST   -Y,R20
__SAVELOCR4:
	ST   -Y,R19
__SAVELOCR3:
	ST   -Y,R18
__SAVELOCR2:
	ST   -Y,R17
	ST   -Y,R16
	RET

__LOADLOCR6:
	LDD  R21,Y+5
__LOADLOCR5:
	LDD  R20,Y+4
__LOADLOCR4:
	LDD  R19,Y+3
__LOADLOCR3:
	LDD  R18,Y+2
__LOADLOCR2:
	LDD  R17,Y+1
	LD   R16,Y
	RET

;END OF CODE MARKER
__END_OF_CODE:
